
home_control_center.elf:     file format elf32-littlearm

Sections:
Idx Name          Size      VMA       LMA       File off  Algn
  0 .isr_vector   0000010c  08000000  08000000  00010000  2**0
                  CONTENTS, ALLOC, LOAD, READONLY, DATA
  1 .text         000027d4  0800010c  0800010c  0001010c  2**2
                  CONTENTS, ALLOC, LOAD, READONLY, CODE
  2 .rodata       00000058  080028e0  080028e0  000128e0  2**2
                  CONTENTS, ALLOC, LOAD, READONLY, DATA
  3 .init_array   00000004  08002938  08002938  00012938  2**2
                  CONTENTS, ALLOC, LOAD, DATA
  4 .fini_array   00000004  0800293c  0800293c  0001293c  2**2
                  CONTENTS, ALLOC, LOAD, DATA
  5 .data         00000010  20000000  08002940  00020000  2**2
                  CONTENTS, ALLOC, LOAD, DATA
  6 .bss          00000818  20000010  08002950  00020010  2**2
                  ALLOC
  7 ._user_heap_stack 00000100  20000828  08002950  00020828  2**0
                  ALLOC
  8 .ARM.attributes 00000029  00000000  00000000  00020010  2**0
                  CONTENTS, READONLY
  9 .debug_info   0000a0ff  00000000  00000000  00020039  2**0
                  CONTENTS, READONLY, DEBUGGING
 10 .debug_abbrev 00001964  00000000  00000000  0002a138  2**0
                  CONTENTS, READONLY, DEBUGGING
 11 .debug_aranges 00000718  00000000  00000000  0002baa0  2**3
                  CONTENTS, READONLY, DEBUGGING
 12 .debug_ranges 00000670  00000000  00000000  0002c1b8  2**3
                  CONTENTS, READONLY, DEBUGGING
 13 .debug_line   00002f2b  00000000  00000000  0002c828  2**0
                  CONTENTS, READONLY, DEBUGGING
 14 .debug_str    0000287a  00000000  00000000  0002f753  2**0
                  CONTENTS, READONLY, DEBUGGING
 15 .comment      0000007c  00000000  00000000  00031fcd  2**0
                  CONTENTS, READONLY
 16 .debug_frame  00001bf8  00000000  00000000  0003204c  2**2
                  CONTENTS, READONLY, DEBUGGING
 17 .stabstr      0000003f  00000000  00000000  00033c44  2**0
                  CONTENTS, READONLY, DEBUGGING

Disassembly of section .text:

0800010c <__do_global_dtors_aux>:
 800010c:	b510      	push	{r4, lr}
 800010e:	4c05      	ldr	r4, [pc, #20]	; (8000124 <__do_global_dtors_aux+0x18>)
 8000110:	7823      	ldrb	r3, [r4, #0]
 8000112:	b933      	cbnz	r3, 8000122 <__do_global_dtors_aux+0x16>
 8000114:	4b04      	ldr	r3, [pc, #16]	; (8000128 <__do_global_dtors_aux+0x1c>)
 8000116:	b113      	cbz	r3, 800011e <__do_global_dtors_aux+0x12>
 8000118:	4804      	ldr	r0, [pc, #16]	; (800012c <__do_global_dtors_aux+0x20>)
 800011a:	f3af 8000 	nop.w
 800011e:	2301      	movs	r3, #1
 8000120:	7023      	strb	r3, [r4, #0]
 8000122:	bd10      	pop	{r4, pc}
 8000124:	20000010 	.word	0x20000010
 8000128:	00000000 	.word	0x00000000
 800012c:	080028c8 	.word	0x080028c8

08000130 <frame_dummy>:
 8000130:	b508      	push	{r3, lr}
 8000132:	4b03      	ldr	r3, [pc, #12]	; (8000140 <frame_dummy+0x10>)
 8000134:	b11b      	cbz	r3, 800013e <frame_dummy+0xe>
 8000136:	4903      	ldr	r1, [pc, #12]	; (8000144 <frame_dummy+0x14>)
 8000138:	4803      	ldr	r0, [pc, #12]	; (8000148 <frame_dummy+0x18>)
 800013a:	f3af 8000 	nop.w
 800013e:	bd08      	pop	{r3, pc}
 8000140:	00000000 	.word	0x00000000
 8000144:	20000014 	.word	0x20000014
 8000148:	080028c8 	.word	0x080028c8

0800014c <strlen>:
 800014c:	4603      	mov	r3, r0
 800014e:	f813 2b01 	ldrb.w	r2, [r3], #1
 8000152:	2a00      	cmp	r2, #0
 8000154:	d1fb      	bne.n	800014e <strlen+0x2>
 8000156:	1a18      	subs	r0, r3, r0
 8000158:	3801      	subs	r0, #1
 800015a:	4770      	bx	lr

0800015c <GPIO_Init>:
  * @param  GPIO_InitStruct: pointer to a GPIO_InitTypeDef structure that
  *         contains the configuration information for the specified GPIO peripheral.
  * @retval None
  */
void GPIO_Init(GPIO_TypeDef* GPIOx, GPIO_InitTypeDef* GPIO_InitStruct)
{
 800015c:	b480      	push	{r7}
 800015e:	b089      	sub	sp, #36	; 0x24
 8000160:	af00      	add	r7, sp, #0
 8000162:	6078      	str	r0, [r7, #4]
 8000164:	6039      	str	r1, [r7, #0]
  uint32_t currentmode = 0x00, currentpin = 0x00, pinpos = 0x00, pos = 0x00;
 8000166:	2300      	movs	r3, #0
 8000168:	61fb      	str	r3, [r7, #28]
 800016a:	2300      	movs	r3, #0
 800016c:	613b      	str	r3, [r7, #16]
 800016e:	2300      	movs	r3, #0
 8000170:	61bb      	str	r3, [r7, #24]
 8000172:	2300      	movs	r3, #0
 8000174:	60fb      	str	r3, [r7, #12]
  uint32_t tmpreg = 0x00, pinmask = 0x00;
 8000176:	2300      	movs	r3, #0
 8000178:	617b      	str	r3, [r7, #20]
 800017a:	2300      	movs	r3, #0
 800017c:	60bb      	str	r3, [r7, #8]
  assert_param(IS_GPIO_ALL_PERIPH(GPIOx));
  assert_param(IS_GPIO_MODE(GPIO_InitStruct->GPIO_Mode));
  assert_param(IS_GPIO_PIN(GPIO_InitStruct->GPIO_Pin));  
  
/*---------------------------- GPIO Mode Configuration -----------------------*/
  currentmode = ((uint32_t)GPIO_InitStruct->GPIO_Mode) & ((uint32_t)0x0F);
 800017e:	683b      	ldr	r3, [r7, #0]
 8000180:	78db      	ldrb	r3, [r3, #3]
 8000182:	f003 030f 	and.w	r3, r3, #15
 8000186:	61fb      	str	r3, [r7, #28]
  if ((((uint32_t)GPIO_InitStruct->GPIO_Mode) & ((uint32_t)0x10)) != 0x00)
 8000188:	683b      	ldr	r3, [r7, #0]
 800018a:	78db      	ldrb	r3, [r3, #3]
 800018c:	f003 0310 	and.w	r3, r3, #16
 8000190:	2b00      	cmp	r3, #0
 8000192:	d005      	beq.n	80001a0 <GPIO_Init+0x44>
  { 
    /* Check the parameters */
    assert_param(IS_GPIO_SPEED(GPIO_InitStruct->GPIO_Speed));
    /* Output mode */
    currentmode |= (uint32_t)GPIO_InitStruct->GPIO_Speed;
 8000194:	683b      	ldr	r3, [r7, #0]
 8000196:	789b      	ldrb	r3, [r3, #2]
 8000198:	461a      	mov	r2, r3
 800019a:	69fb      	ldr	r3, [r7, #28]
 800019c:	4313      	orrs	r3, r2
 800019e:	61fb      	str	r3, [r7, #28]
  }
/*---------------------------- GPIO CRL Configuration ------------------------*/
  /* Configure the eight low port pins */
  if (((uint32_t)GPIO_InitStruct->GPIO_Pin & ((uint32_t)0x00FF)) != 0x00)
 80001a0:	683b      	ldr	r3, [r7, #0]
 80001a2:	881b      	ldrh	r3, [r3, #0]
 80001a4:	b2db      	uxtb	r3, r3
 80001a6:	2b00      	cmp	r3, #0
 80001a8:	d044      	beq.n	8000234 <GPIO_Init+0xd8>
  {
    tmpreg = GPIOx->CRL;
 80001aa:	687b      	ldr	r3, [r7, #4]
 80001ac:	681b      	ldr	r3, [r3, #0]
 80001ae:	617b      	str	r3, [r7, #20]
    for (pinpos = 0x00; pinpos < 0x08; pinpos++)
 80001b0:	2300      	movs	r3, #0
 80001b2:	61bb      	str	r3, [r7, #24]
 80001b4:	e038      	b.n	8000228 <GPIO_Init+0xcc>
    {
      pos = ((uint32_t)0x01) << pinpos;
 80001b6:	2201      	movs	r2, #1
 80001b8:	69bb      	ldr	r3, [r7, #24]
 80001ba:	fa02 f303 	lsl.w	r3, r2, r3
 80001be:	60fb      	str	r3, [r7, #12]
      /* Get the port pins position */
      currentpin = (GPIO_InitStruct->GPIO_Pin) & pos;
 80001c0:	683b      	ldr	r3, [r7, #0]
 80001c2:	881b      	ldrh	r3, [r3, #0]
 80001c4:	461a      	mov	r2, r3
 80001c6:	68fb      	ldr	r3, [r7, #12]
 80001c8:	4013      	ands	r3, r2
 80001ca:	613b      	str	r3, [r7, #16]
      if (currentpin == pos)
 80001cc:	693a      	ldr	r2, [r7, #16]
 80001ce:	68fb      	ldr	r3, [r7, #12]
 80001d0:	429a      	cmp	r2, r3
 80001d2:	d126      	bne.n	8000222 <GPIO_Init+0xc6>
      {
        pos = pinpos << 2;
 80001d4:	69bb      	ldr	r3, [r7, #24]
 80001d6:	009b      	lsls	r3, r3, #2
 80001d8:	60fb      	str	r3, [r7, #12]
        /* Clear the corresponding low control register bits */
        pinmask = ((uint32_t)0x0F) << pos;
 80001da:	220f      	movs	r2, #15
 80001dc:	68fb      	ldr	r3, [r7, #12]
 80001de:	fa02 f303 	lsl.w	r3, r2, r3
 80001e2:	60bb      	str	r3, [r7, #8]
        tmpreg &= ~pinmask;
 80001e4:	68bb      	ldr	r3, [r7, #8]
 80001e6:	43db      	mvns	r3, r3
 80001e8:	697a      	ldr	r2, [r7, #20]
 80001ea:	4013      	ands	r3, r2
 80001ec:	617b      	str	r3, [r7, #20]
        /* Write the mode configuration in the corresponding bits */
        tmpreg |= (currentmode << pos);
 80001ee:	69fa      	ldr	r2, [r7, #28]
 80001f0:	68fb      	ldr	r3, [r7, #12]
 80001f2:	fa02 f303 	lsl.w	r3, r2, r3
 80001f6:	697a      	ldr	r2, [r7, #20]
 80001f8:	4313      	orrs	r3, r2
 80001fa:	617b      	str	r3, [r7, #20]
        /* Reset the corresponding ODR bit */
        if (GPIO_InitStruct->GPIO_Mode == GPIO_Mode_IPD)
 80001fc:	683b      	ldr	r3, [r7, #0]
 80001fe:	78db      	ldrb	r3, [r3, #3]
 8000200:	2b28      	cmp	r3, #40	; 0x28
 8000202:	d105      	bne.n	8000210 <GPIO_Init+0xb4>
        {
          GPIOx->BRR = (((uint32_t)0x01) << pinpos);
 8000204:	2201      	movs	r2, #1
 8000206:	69bb      	ldr	r3, [r7, #24]
 8000208:	409a      	lsls	r2, r3
 800020a:	687b      	ldr	r3, [r7, #4]
 800020c:	615a      	str	r2, [r3, #20]
 800020e:	e008      	b.n	8000222 <GPIO_Init+0xc6>
        }
        else
        {
          /* Set the corresponding ODR bit */
          if (GPIO_InitStruct->GPIO_Mode == GPIO_Mode_IPU)
 8000210:	683b      	ldr	r3, [r7, #0]
 8000212:	78db      	ldrb	r3, [r3, #3]
 8000214:	2b48      	cmp	r3, #72	; 0x48
 8000216:	d104      	bne.n	8000222 <GPIO_Init+0xc6>
          {
            GPIOx->BSRR = (((uint32_t)0x01) << pinpos);
 8000218:	2201      	movs	r2, #1
 800021a:	69bb      	ldr	r3, [r7, #24]
 800021c:	409a      	lsls	r2, r3
 800021e:	687b      	ldr	r3, [r7, #4]
 8000220:	611a      	str	r2, [r3, #16]
    for (pinpos = 0x00; pinpos < 0x08; pinpos++)
 8000222:	69bb      	ldr	r3, [r7, #24]
 8000224:	3301      	adds	r3, #1
 8000226:	61bb      	str	r3, [r7, #24]
 8000228:	69bb      	ldr	r3, [r7, #24]
 800022a:	2b07      	cmp	r3, #7
 800022c:	d9c3      	bls.n	80001b6 <GPIO_Init+0x5a>
          }
        }
      }
    }
    GPIOx->CRL = tmpreg;
 800022e:	687b      	ldr	r3, [r7, #4]
 8000230:	697a      	ldr	r2, [r7, #20]
 8000232:	601a      	str	r2, [r3, #0]
  }
/*---------------------------- GPIO CRH Configuration ------------------------*/
  /* Configure the eight high port pins */
  if (GPIO_InitStruct->GPIO_Pin > 0x00FF)
 8000234:	683b      	ldr	r3, [r7, #0]
 8000236:	881b      	ldrh	r3, [r3, #0]
 8000238:	2bff      	cmp	r3, #255	; 0xff
 800023a:	d946      	bls.n	80002ca <GPIO_Init+0x16e>
  {
    tmpreg = GPIOx->CRH;
 800023c:	687b      	ldr	r3, [r7, #4]
 800023e:	685b      	ldr	r3, [r3, #4]
 8000240:	617b      	str	r3, [r7, #20]
    for (pinpos = 0x00; pinpos < 0x08; pinpos++)
 8000242:	2300      	movs	r3, #0
 8000244:	61bb      	str	r3, [r7, #24]
 8000246:	e03a      	b.n	80002be <GPIO_Init+0x162>
    {
      pos = (((uint32_t)0x01) << (pinpos + 0x08));
 8000248:	69bb      	ldr	r3, [r7, #24]
 800024a:	3308      	adds	r3, #8
 800024c:	2201      	movs	r2, #1
 800024e:	fa02 f303 	lsl.w	r3, r2, r3
 8000252:	60fb      	str	r3, [r7, #12]
      /* Get the port pins position */
      currentpin = ((GPIO_InitStruct->GPIO_Pin) & pos);
 8000254:	683b      	ldr	r3, [r7, #0]
 8000256:	881b      	ldrh	r3, [r3, #0]
 8000258:	461a      	mov	r2, r3
 800025a:	68fb      	ldr	r3, [r7, #12]
 800025c:	4013      	ands	r3, r2
 800025e:	613b      	str	r3, [r7, #16]
      if (currentpin == pos)
 8000260:	693a      	ldr	r2, [r7, #16]
 8000262:	68fb      	ldr	r3, [r7, #12]
 8000264:	429a      	cmp	r2, r3
 8000266:	d127      	bne.n	80002b8 <GPIO_Init+0x15c>
      {
        pos = pinpos << 2;
 8000268:	69bb      	ldr	r3, [r7, #24]
 800026a:	009b      	lsls	r3, r3, #2
 800026c:	60fb      	str	r3, [r7, #12]
        /* Clear the corresponding high control register bits */
        pinmask = ((uint32_t)0x0F) << pos;
 800026e:	220f      	movs	r2, #15
 8000270:	68fb      	ldr	r3, [r7, #12]
 8000272:	fa02 f303 	lsl.w	r3, r2, r3
 8000276:	60bb      	str	r3, [r7, #8]
        tmpreg &= ~pinmask;
 8000278:	68bb      	ldr	r3, [r7, #8]
 800027a:	43db      	mvns	r3, r3
 800027c:	697a      	ldr	r2, [r7, #20]
 800027e:	4013      	ands	r3, r2
 8000280:	617b      	str	r3, [r7, #20]
        /* Write the mode configuration in the corresponding bits */
        tmpreg |= (currentmode << pos);
 8000282:	69fa      	ldr	r2, [r7, #28]
 8000284:	68fb      	ldr	r3, [r7, #12]
 8000286:	fa02 f303 	lsl.w	r3, r2, r3
 800028a:	697a      	ldr	r2, [r7, #20]
 800028c:	4313      	orrs	r3, r2
 800028e:	617b      	str	r3, [r7, #20]
        /* Reset the corresponding ODR bit */
        if (GPIO_InitStruct->GPIO_Mode == GPIO_Mode_IPD)
 8000290:	683b      	ldr	r3, [r7, #0]
 8000292:	78db      	ldrb	r3, [r3, #3]
 8000294:	2b28      	cmp	r3, #40	; 0x28
 8000296:	d105      	bne.n	80002a4 <GPIO_Init+0x148>
        {
          GPIOx->BRR = (((uint32_t)0x01) << (pinpos + 0x08));
 8000298:	69bb      	ldr	r3, [r7, #24]
 800029a:	3308      	adds	r3, #8
 800029c:	2201      	movs	r2, #1
 800029e:	409a      	lsls	r2, r3
 80002a0:	687b      	ldr	r3, [r7, #4]
 80002a2:	615a      	str	r2, [r3, #20]
        }
        /* Set the corresponding ODR bit */
        if (GPIO_InitStruct->GPIO_Mode == GPIO_Mode_IPU)
 80002a4:	683b      	ldr	r3, [r7, #0]
 80002a6:	78db      	ldrb	r3, [r3, #3]
 80002a8:	2b48      	cmp	r3, #72	; 0x48
 80002aa:	d105      	bne.n	80002b8 <GPIO_Init+0x15c>
        {
          GPIOx->BSRR = (((uint32_t)0x01) << (pinpos + 0x08));
 80002ac:	69bb      	ldr	r3, [r7, #24]
 80002ae:	3308      	adds	r3, #8
 80002b0:	2201      	movs	r2, #1
 80002b2:	409a      	lsls	r2, r3
 80002b4:	687b      	ldr	r3, [r7, #4]
 80002b6:	611a      	str	r2, [r3, #16]
    for (pinpos = 0x00; pinpos < 0x08; pinpos++)
 80002b8:	69bb      	ldr	r3, [r7, #24]
 80002ba:	3301      	adds	r3, #1
 80002bc:	61bb      	str	r3, [r7, #24]
 80002be:	69bb      	ldr	r3, [r7, #24]
 80002c0:	2b07      	cmp	r3, #7
 80002c2:	d9c1      	bls.n	8000248 <GPIO_Init+0xec>
        }
      }
    }
    GPIOx->CRH = tmpreg;
 80002c4:	687b      	ldr	r3, [r7, #4]
 80002c6:	697a      	ldr	r2, [r7, #20]
 80002c8:	605a      	str	r2, [r3, #4]
  }
}
 80002ca:	bf00      	nop
 80002cc:	3724      	adds	r7, #36	; 0x24
 80002ce:	46bd      	mov	sp, r7
 80002d0:	bc80      	pop	{r7}
 80002d2:	4770      	bx	lr

080002d4 <GPIO_SetBits>:
  * @param  GPIO_Pin: specifies the port bits to be written.
  *   This parameter can be any combination of GPIO_Pin_x where x can be (0..15).
  * @retval None
  */
void GPIO_SetBits(GPIO_TypeDef* GPIOx, uint16_t GPIO_Pin)
{
 80002d4:	b480      	push	{r7}
 80002d6:	b083      	sub	sp, #12
 80002d8:	af00      	add	r7, sp, #0
 80002da:	6078      	str	r0, [r7, #4]
 80002dc:	460b      	mov	r3, r1
 80002de:	807b      	strh	r3, [r7, #2]
  /* Check the parameters */
  assert_param(IS_GPIO_ALL_PERIPH(GPIOx));
  assert_param(IS_GPIO_PIN(GPIO_Pin));
  
  GPIOx->BSRR = GPIO_Pin;
 80002e0:	887a      	ldrh	r2, [r7, #2]
 80002e2:	687b      	ldr	r3, [r7, #4]
 80002e4:	611a      	str	r2, [r3, #16]
}
 80002e6:	bf00      	nop
 80002e8:	370c      	adds	r7, #12
 80002ea:	46bd      	mov	sp, r7
 80002ec:	bc80      	pop	{r7}
 80002ee:	4770      	bx	lr

080002f0 <GPIO_ResetBits>:
  * @param  GPIO_Pin: specifies the port bits to be written.
  *   This parameter can be any combination of GPIO_Pin_x where x can be (0..15).
  * @retval None
  */
void GPIO_ResetBits(GPIO_TypeDef* GPIOx, uint16_t GPIO_Pin)
{
 80002f0:	b480      	push	{r7}
 80002f2:	b083      	sub	sp, #12
 80002f4:	af00      	add	r7, sp, #0
 80002f6:	6078      	str	r0, [r7, #4]
 80002f8:	460b      	mov	r3, r1
 80002fa:	807b      	strh	r3, [r7, #2]
  /* Check the parameters */
  assert_param(IS_GPIO_ALL_PERIPH(GPIOx));
  assert_param(IS_GPIO_PIN(GPIO_Pin));
  
  GPIOx->BRR = GPIO_Pin;
 80002fc:	887a      	ldrh	r2, [r7, #2]
 80002fe:	687b      	ldr	r3, [r7, #4]
 8000300:	615a      	str	r2, [r3, #20]
}
 8000302:	bf00      	nop
 8000304:	370c      	adds	r7, #12
 8000306:	46bd      	mov	sp, r7
 8000308:	bc80      	pop	{r7}
 800030a:	4770      	bx	lr

0800030c <RCC_APB2PeriphClockCmd>:
  * @param  NewState: new state of the specified peripheral clock.
  *   This parameter can be: ENABLE or DISABLE.
  * @retval None
  */
void RCC_APB2PeriphClockCmd(uint32_t RCC_APB2Periph, FunctionalState NewState)
{
 800030c:	b480      	push	{r7}
 800030e:	b083      	sub	sp, #12
 8000310:	af00      	add	r7, sp, #0
 8000312:	6078      	str	r0, [r7, #4]
 8000314:	460b      	mov	r3, r1
 8000316:	70fb      	strb	r3, [r7, #3]
  /* Check the parameters */
  assert_param(IS_RCC_APB2_PERIPH(RCC_APB2Periph));
  assert_param(IS_FUNCTIONAL_STATE(NewState));
  if (NewState != DISABLE)
 8000318:	78fb      	ldrb	r3, [r7, #3]
 800031a:	2b00      	cmp	r3, #0
 800031c:	d006      	beq.n	800032c <RCC_APB2PeriphClockCmd+0x20>
  {
    RCC->APB2ENR |= RCC_APB2Periph;
 800031e:	4909      	ldr	r1, [pc, #36]	; (8000344 <RCC_APB2PeriphClockCmd+0x38>)
 8000320:	4b08      	ldr	r3, [pc, #32]	; (8000344 <RCC_APB2PeriphClockCmd+0x38>)
 8000322:	699a      	ldr	r2, [r3, #24]
 8000324:	687b      	ldr	r3, [r7, #4]
 8000326:	4313      	orrs	r3, r2
 8000328:	618b      	str	r3, [r1, #24]
  }
  else
  {
    RCC->APB2ENR &= ~RCC_APB2Periph;
  }
}
 800032a:	e006      	b.n	800033a <RCC_APB2PeriphClockCmd+0x2e>
    RCC->APB2ENR &= ~RCC_APB2Periph;
 800032c:	4905      	ldr	r1, [pc, #20]	; (8000344 <RCC_APB2PeriphClockCmd+0x38>)
 800032e:	4b05      	ldr	r3, [pc, #20]	; (8000344 <RCC_APB2PeriphClockCmd+0x38>)
 8000330:	699a      	ldr	r2, [r3, #24]
 8000332:	687b      	ldr	r3, [r7, #4]
 8000334:	43db      	mvns	r3, r3
 8000336:	4013      	ands	r3, r2
 8000338:	618b      	str	r3, [r1, #24]
}
 800033a:	bf00      	nop
 800033c:	370c      	adds	r7, #12
 800033e:	46bd      	mov	sp, r7
 8000340:	bc80      	pop	{r7}
 8000342:	4770      	bx	lr
 8000344:	40021000 	.word	0x40021000

08000348 <SPI_Init>:
  * @param  SPI_InitStruct: pointer to a SPI_InitTypeDef structure that
  *         contains the configuration information for the specified SPI peripheral.
  * @retval None
  */
void SPI_Init(SPI_TypeDef* SPIx, SPI_InitTypeDef* SPI_InitStruct)
{
 8000348:	b480      	push	{r7}
 800034a:	b085      	sub	sp, #20
 800034c:	af00      	add	r7, sp, #0
 800034e:	6078      	str	r0, [r7, #4]
 8000350:	6039      	str	r1, [r7, #0]
  uint16_t tmpreg = 0;
 8000352:	2300      	movs	r3, #0
 8000354:	81fb      	strh	r3, [r7, #14]
  assert_param(IS_SPI_FIRST_BIT(SPI_InitStruct->SPI_FirstBit));
  assert_param(IS_SPI_CRC_POLYNOMIAL(SPI_InitStruct->SPI_CRCPolynomial));

/*---------------------------- SPIx CR1 Configuration ------------------------*/
  /* Get the SPIx CR1 value */
  tmpreg = SPIx->CR1;
 8000356:	687b      	ldr	r3, [r7, #4]
 8000358:	881b      	ldrh	r3, [r3, #0]
 800035a:	81fb      	strh	r3, [r7, #14]
  /* Clear BIDIMode, BIDIOE, RxONLY, SSM, SSI, LSBFirst, BR, MSTR, CPOL and CPHA bits */
  tmpreg &= CR1_CLEAR_Mask;
 800035c:	89fb      	ldrh	r3, [r7, #14]
 800035e:	f403 5341 	and.w	r3, r3, #12352	; 0x3040
 8000362:	81fb      	strh	r3, [r7, #14]
  /* Set SSM, SSI and MSTR bits according to SPI_Mode and SPI_NSS values */
  /* Set LSBFirst bit according to SPI_FirstBit value */
  /* Set BR bits according to SPI_BaudRatePrescaler value */
  /* Set CPOL bit according to SPI_CPOL value */
  /* Set CPHA bit according to SPI_CPHA value */
  tmpreg |= (uint16_t)((uint32_t)SPI_InitStruct->SPI_Direction | SPI_InitStruct->SPI_Mode |
 8000364:	683b      	ldr	r3, [r7, #0]
 8000366:	881a      	ldrh	r2, [r3, #0]
 8000368:	683b      	ldr	r3, [r7, #0]
 800036a:	885b      	ldrh	r3, [r3, #2]
 800036c:	4313      	orrs	r3, r2
 800036e:	b29a      	uxth	r2, r3
                  SPI_InitStruct->SPI_DataSize | SPI_InitStruct->SPI_CPOL |  
 8000370:	683b      	ldr	r3, [r7, #0]
 8000372:	889b      	ldrh	r3, [r3, #4]
  tmpreg |= (uint16_t)((uint32_t)SPI_InitStruct->SPI_Direction | SPI_InitStruct->SPI_Mode |
 8000374:	4313      	orrs	r3, r2
 8000376:	b29a      	uxth	r2, r3
                  SPI_InitStruct->SPI_DataSize | SPI_InitStruct->SPI_CPOL |  
 8000378:	683b      	ldr	r3, [r7, #0]
 800037a:	88db      	ldrh	r3, [r3, #6]
  tmpreg |= (uint16_t)((uint32_t)SPI_InitStruct->SPI_Direction | SPI_InitStruct->SPI_Mode |
 800037c:	4313      	orrs	r3, r2
 800037e:	b29a      	uxth	r2, r3
                  SPI_InitStruct->SPI_CPHA | SPI_InitStruct->SPI_NSS |  
 8000380:	683b      	ldr	r3, [r7, #0]
 8000382:	891b      	ldrh	r3, [r3, #8]
  tmpreg |= (uint16_t)((uint32_t)SPI_InitStruct->SPI_Direction | SPI_InitStruct->SPI_Mode |
 8000384:	4313      	orrs	r3, r2
 8000386:	b29a      	uxth	r2, r3
                  SPI_InitStruct->SPI_CPHA | SPI_InitStruct->SPI_NSS |  
 8000388:	683b      	ldr	r3, [r7, #0]
 800038a:	895b      	ldrh	r3, [r3, #10]
  tmpreg |= (uint16_t)((uint32_t)SPI_InitStruct->SPI_Direction | SPI_InitStruct->SPI_Mode |
 800038c:	4313      	orrs	r3, r2
 800038e:	b29a      	uxth	r2, r3
                  SPI_InitStruct->SPI_BaudRatePrescaler | SPI_InitStruct->SPI_FirstBit);
 8000390:	683b      	ldr	r3, [r7, #0]
 8000392:	899b      	ldrh	r3, [r3, #12]
  tmpreg |= (uint16_t)((uint32_t)SPI_InitStruct->SPI_Direction | SPI_InitStruct->SPI_Mode |
 8000394:	4313      	orrs	r3, r2
 8000396:	b29a      	uxth	r2, r3
                  SPI_InitStruct->SPI_BaudRatePrescaler | SPI_InitStruct->SPI_FirstBit);
 8000398:	683b      	ldr	r3, [r7, #0]
 800039a:	89db      	ldrh	r3, [r3, #14]
  tmpreg |= (uint16_t)((uint32_t)SPI_InitStruct->SPI_Direction | SPI_InitStruct->SPI_Mode |
 800039c:	4313      	orrs	r3, r2
 800039e:	b29a      	uxth	r2, r3
 80003a0:	89fb      	ldrh	r3, [r7, #14]
 80003a2:	4313      	orrs	r3, r2
 80003a4:	81fb      	strh	r3, [r7, #14]
  /* Write to SPIx CR1 */
  SPIx->CR1 = tmpreg;
 80003a6:	687b      	ldr	r3, [r7, #4]
 80003a8:	89fa      	ldrh	r2, [r7, #14]
 80003aa:	801a      	strh	r2, [r3, #0]
  
  /* Activate the SPI mode (Reset I2SMOD bit in I2SCFGR register) */
  SPIx->I2SCFGR &= SPI_Mode_Select;		
 80003ac:	687b      	ldr	r3, [r7, #4]
 80003ae:	8b9b      	ldrh	r3, [r3, #28]
 80003b0:	b29b      	uxth	r3, r3
 80003b2:	f423 6300 	bic.w	r3, r3, #2048	; 0x800
 80003b6:	b29a      	uxth	r2, r3
 80003b8:	687b      	ldr	r3, [r7, #4]
 80003ba:	839a      	strh	r2, [r3, #28]

/*---------------------------- SPIx CRCPOLY Configuration --------------------*/
  /* Write to SPIx CRCPOLY */
  SPIx->CRCPR = SPI_InitStruct->SPI_CRCPolynomial;
 80003bc:	683b      	ldr	r3, [r7, #0]
 80003be:	8a1a      	ldrh	r2, [r3, #16]
 80003c0:	687b      	ldr	r3, [r7, #4]
 80003c2:	821a      	strh	r2, [r3, #16]
}
 80003c4:	bf00      	nop
 80003c6:	3714      	adds	r7, #20
 80003c8:	46bd      	mov	sp, r7
 80003ca:	bc80      	pop	{r7}
 80003cc:	4770      	bx	lr

080003ce <SPI_Cmd>:
  * @param  NewState: new state of the SPIx peripheral. 
  *   This parameter can be: ENABLE or DISABLE.
  * @retval None
  */
void SPI_Cmd(SPI_TypeDef* SPIx, FunctionalState NewState)
{
 80003ce:	b480      	push	{r7}
 80003d0:	b083      	sub	sp, #12
 80003d2:	af00      	add	r7, sp, #0
 80003d4:	6078      	str	r0, [r7, #4]
 80003d6:	460b      	mov	r3, r1
 80003d8:	70fb      	strb	r3, [r7, #3]
  /* Check the parameters */
  assert_param(IS_SPI_ALL_PERIPH(SPIx));
  assert_param(IS_FUNCTIONAL_STATE(NewState));
  if (NewState != DISABLE)
 80003da:	78fb      	ldrb	r3, [r7, #3]
 80003dc:	2b00      	cmp	r3, #0
 80003de:	d008      	beq.n	80003f2 <SPI_Cmd+0x24>
  {
    /* Enable the selected SPI peripheral */
    SPIx->CR1 |= CR1_SPE_Set;
 80003e0:	687b      	ldr	r3, [r7, #4]
 80003e2:	881b      	ldrh	r3, [r3, #0]
 80003e4:	b29b      	uxth	r3, r3
 80003e6:	f043 0340 	orr.w	r3, r3, #64	; 0x40
 80003ea:	b29a      	uxth	r2, r3
 80003ec:	687b      	ldr	r3, [r7, #4]
 80003ee:	801a      	strh	r2, [r3, #0]
  else
  {
    /* Disable the selected SPI peripheral */
    SPIx->CR1 &= CR1_SPE_Reset;
  }
}
 80003f0:	e007      	b.n	8000402 <SPI_Cmd+0x34>
    SPIx->CR1 &= CR1_SPE_Reset;
 80003f2:	687b      	ldr	r3, [r7, #4]
 80003f4:	881b      	ldrh	r3, [r3, #0]
 80003f6:	b29b      	uxth	r3, r3
 80003f8:	f023 0340 	bic.w	r3, r3, #64	; 0x40
 80003fc:	b29a      	uxth	r2, r3
 80003fe:	687b      	ldr	r3, [r7, #4]
 8000400:	801a      	strh	r2, [r3, #0]
}
 8000402:	bf00      	nop
 8000404:	370c      	adds	r7, #12
 8000406:	46bd      	mov	sp, r7
 8000408:	bc80      	pop	{r7}
 800040a:	4770      	bx	lr

0800040c <SPI_I2S_SendData>:
  *   - 2 or 3 in I2S mode
  * @param  Data : Data to be transmitted.
  * @retval None
  */
void SPI_I2S_SendData(SPI_TypeDef* SPIx, uint16_t Data)
{
 800040c:	b480      	push	{r7}
 800040e:	b083      	sub	sp, #12
 8000410:	af00      	add	r7, sp, #0
 8000412:	6078      	str	r0, [r7, #4]
 8000414:	460b      	mov	r3, r1
 8000416:	807b      	strh	r3, [r7, #2]
  /* Check the parameters */
  assert_param(IS_SPI_ALL_PERIPH(SPIx));
  
  /* Write in the DR register the data to be sent */
  SPIx->DR = Data;
 8000418:	687b      	ldr	r3, [r7, #4]
 800041a:	887a      	ldrh	r2, [r7, #2]
 800041c:	819a      	strh	r2, [r3, #12]
}
 800041e:	bf00      	nop
 8000420:	370c      	adds	r7, #12
 8000422:	46bd      	mov	sp, r7
 8000424:	bc80      	pop	{r7}
 8000426:	4770      	bx	lr

08000428 <SPI_I2S_ReceiveData>:
  *   - 1, 2 or 3 in SPI mode 
  *   - 2 or 3 in I2S mode
  * @retval The value of the received data.
  */
uint16_t SPI_I2S_ReceiveData(SPI_TypeDef* SPIx)
{
 8000428:	b480      	push	{r7}
 800042a:	b083      	sub	sp, #12
 800042c:	af00      	add	r7, sp, #0
 800042e:	6078      	str	r0, [r7, #4]
  /* Check the parameters */
  assert_param(IS_SPI_ALL_PERIPH(SPIx));
  
  /* Return the data in the DR register */
  return SPIx->DR;
 8000430:	687b      	ldr	r3, [r7, #4]
 8000432:	899b      	ldrh	r3, [r3, #12]
 8000434:	b29b      	uxth	r3, r3
}
 8000436:	4618      	mov	r0, r3
 8000438:	370c      	adds	r7, #12
 800043a:	46bd      	mov	sp, r7
 800043c:	bc80      	pop	{r7}
 800043e:	4770      	bx	lr

08000440 <SPI_SSOutputCmd>:
  * @param  NewState: new state of the SPIx SS output. 
  *   This parameter can be: ENABLE or DISABLE.
  * @retval None
  */
void SPI_SSOutputCmd(SPI_TypeDef* SPIx, FunctionalState NewState)
{
 8000440:	b480      	push	{r7}
 8000442:	b083      	sub	sp, #12
 8000444:	af00      	add	r7, sp, #0
 8000446:	6078      	str	r0, [r7, #4]
 8000448:	460b      	mov	r3, r1
 800044a:	70fb      	strb	r3, [r7, #3]
  /* Check the parameters */
  assert_param(IS_SPI_ALL_PERIPH(SPIx));
  assert_param(IS_FUNCTIONAL_STATE(NewState));
  if (NewState != DISABLE)
 800044c:	78fb      	ldrb	r3, [r7, #3]
 800044e:	2b00      	cmp	r3, #0
 8000450:	d008      	beq.n	8000464 <SPI_SSOutputCmd+0x24>
  {
    /* Enable the selected SPI SS output */
    SPIx->CR2 |= CR2_SSOE_Set;
 8000452:	687b      	ldr	r3, [r7, #4]
 8000454:	889b      	ldrh	r3, [r3, #4]
 8000456:	b29b      	uxth	r3, r3
 8000458:	f043 0304 	orr.w	r3, r3, #4
 800045c:	b29a      	uxth	r2, r3
 800045e:	687b      	ldr	r3, [r7, #4]
 8000460:	809a      	strh	r2, [r3, #4]
  else
  {
    /* Disable the selected SPI SS output */
    SPIx->CR2 &= CR2_SSOE_Reset;
  }
}
 8000462:	e007      	b.n	8000474 <SPI_SSOutputCmd+0x34>
    SPIx->CR2 &= CR2_SSOE_Reset;
 8000464:	687b      	ldr	r3, [r7, #4]
 8000466:	889b      	ldrh	r3, [r3, #4]
 8000468:	b29b      	uxth	r3, r3
 800046a:	f023 0304 	bic.w	r3, r3, #4
 800046e:	b29a      	uxth	r2, r3
 8000470:	687b      	ldr	r3, [r7, #4]
 8000472:	809a      	strh	r2, [r3, #4]
}
 8000474:	bf00      	nop
 8000476:	370c      	adds	r7, #12
 8000478:	46bd      	mov	sp, r7
 800047a:	bc80      	pop	{r7}
 800047c:	4770      	bx	lr

0800047e <SPI_I2S_GetFlagStatus>:
  *     @arg I2S_FLAG_UDR: Underrun Error flag.
  *     @arg I2S_FLAG_CHSIDE: Channel Side flag.
  * @retval The new state of SPI_I2S_FLAG (SET or RESET).
  */
FlagStatus SPI_I2S_GetFlagStatus(SPI_TypeDef* SPIx, uint16_t SPI_I2S_FLAG)
{
 800047e:	b480      	push	{r7}
 8000480:	b085      	sub	sp, #20
 8000482:	af00      	add	r7, sp, #0
 8000484:	6078      	str	r0, [r7, #4]
 8000486:	460b      	mov	r3, r1
 8000488:	807b      	strh	r3, [r7, #2]
  FlagStatus bitstatus = RESET;
 800048a:	2300      	movs	r3, #0
 800048c:	73fb      	strb	r3, [r7, #15]
  /* Check the parameters */
  assert_param(IS_SPI_ALL_PERIPH(SPIx));
  assert_param(IS_SPI_I2S_GET_FLAG(SPI_I2S_FLAG));
  /* Check the status of the specified SPI/I2S flag */
  if ((SPIx->SR & SPI_I2S_FLAG) != (uint16_t)RESET)
 800048e:	687b      	ldr	r3, [r7, #4]
 8000490:	891b      	ldrh	r3, [r3, #8]
 8000492:	b29a      	uxth	r2, r3
 8000494:	887b      	ldrh	r3, [r7, #2]
 8000496:	4013      	ands	r3, r2
 8000498:	b29b      	uxth	r3, r3
 800049a:	2b00      	cmp	r3, #0
 800049c:	d002      	beq.n	80004a4 <SPI_I2S_GetFlagStatus+0x26>
  {
    /* SPI_I2S_FLAG is set */
    bitstatus = SET;
 800049e:	2301      	movs	r3, #1
 80004a0:	73fb      	strb	r3, [r7, #15]
 80004a2:	e001      	b.n	80004a8 <SPI_I2S_GetFlagStatus+0x2a>
  }
  else
  {
    /* SPI_I2S_FLAG is reset */
    bitstatus = RESET;
 80004a4:	2300      	movs	r3, #0
 80004a6:	73fb      	strb	r3, [r7, #15]
  }
  /* Return the SPI_I2S_FLAG status */
  return  bitstatus;
 80004a8:	7bfb      	ldrb	r3, [r7, #15]
}
 80004aa:	4618      	mov	r0, r3
 80004ac:	3714      	adds	r7, #20
 80004ae:	46bd      	mov	sp, r7
 80004b0:	bc80      	pop	{r7}
 80004b2:	4770      	bx	lr

080004b4 <packet_send_localhost>:



local_host_t local_host;

void packet_send_localhost(uint8_t * data, uint8_t size){
 80004b4:	b580      	push	{r7, lr}
 80004b6:	b082      	sub	sp, #8
 80004b8:	af00      	add	r7, sp, #0
 80004ba:	6078      	str	r0, [r7, #4]
 80004bc:	460b      	mov	r3, r1
 80004be:	70fb      	strb	r3, [r7, #3]
	memcpy(local_host.data, data, size);
 80004c0:	78fb      	ldrb	r3, [r7, #3]
 80004c2:	461a      	mov	r2, r3
 80004c4:	6879      	ldr	r1, [r7, #4]
 80004c6:	4805      	ldr	r0, [pc, #20]	; (80004dc <packet_send_localhost+0x28>)
 80004c8:	f002 f9ea 	bl	80028a0 <memcpy>
	local_host.len = size;
 80004cc:	4a03      	ldr	r2, [pc, #12]	; (80004dc <packet_send_localhost+0x28>)
 80004ce:	78fb      	ldrb	r3, [r7, #3]
 80004d0:	f882 3100 	strb.w	r3, [r2, #256]	; 0x100
}
 80004d4:	bf00      	nop
 80004d6:	3708      	adds	r7, #8
 80004d8:	46bd      	mov	sp, r7
 80004da:	bd80      	pop	{r7, pc}
 80004dc:	20000040 	.word	0x20000040

080004e0 <mqtt_message_cb>:
//int mqtt_send(void* socket_info, const void* buf, unsigned int count){
//	l3_send_packet(tx_address, buf, count);
//}
//

	int mqtt_message_cb(struct _MqttClient *client, MqttMessage *message, byte msg_new, byte msg_done){
 80004e0:	b480      	push	{r7}
 80004e2:	b085      	sub	sp, #20
 80004e4:	af00      	add	r7, sp, #0
 80004e6:	60f8      	str	r0, [r7, #12]
 80004e8:	60b9      	str	r1, [r7, #8]
 80004ea:	4611      	mov	r1, r2
 80004ec:	461a      	mov	r2, r3
 80004ee:	460b      	mov	r3, r1
 80004f0:	71fb      	strb	r3, [r7, #7]
 80004f2:	4613      	mov	r3, r2
 80004f4:	71bb      	strb	r3, [r7, #6]
		return 1;
 80004f6:	2301      	movs	r3, #1
	}
 80004f8:	4618      	mov	r0, r3
 80004fa:	3714      	adds	r7, #20
 80004fc:	46bd      	mov	sp, r7
 80004fe:	bc80      	pop	{r7}
 8000500:	4770      	bx	lr

08000502 <mqt_net_connect_cb>:


	int mqt_net_connect_cb (void *context, const char* host, word16 port, int timeout_ms){
 8000502:	b480      	push	{r7}
 8000504:	b085      	sub	sp, #20
 8000506:	af00      	add	r7, sp, #0
 8000508:	60f8      	str	r0, [r7, #12]
 800050a:	60b9      	str	r1, [r7, #8]
 800050c:	603b      	str	r3, [r7, #0]
 800050e:	4613      	mov	r3, r2
 8000510:	80fb      	strh	r3, [r7, #6]
		return 1;
 8000512:	2301      	movs	r3, #1
	}
 8000514:	4618      	mov	r0, r3
 8000516:	3714      	adds	r7, #20
 8000518:	46bd      	mov	sp, r7
 800051a:	bc80      	pop	{r7}
 800051c:	4770      	bx	lr
	...

08000520 <mqtt_net_read_cb>:

	int mqtt_net_read_cb(void *context, byte* buf, int buf_len, int timeout_ms){
 8000520:	b580      	push	{r7, lr}
 8000522:	b084      	sub	sp, #16
 8000524:	af00      	add	r7, sp, #0
 8000526:	60f8      	str	r0, [r7, #12]
 8000528:	60b9      	str	r1, [r7, #8]
 800052a:	607a      	str	r2, [r7, #4]
 800052c:	603b      	str	r3, [r7, #0]
		memcpy(buf, &local_host.data[local_host.pos], buf_len);
 800052e:	4b0d      	ldr	r3, [pc, #52]	; (8000564 <mqtt_net_read_cb+0x44>)
 8000530:	f893 3101 	ldrb.w	r3, [r3, #257]	; 0x101
 8000534:	461a      	mov	r2, r3
 8000536:	4b0b      	ldr	r3, [pc, #44]	; (8000564 <mqtt_net_read_cb+0x44>)
 8000538:	4413      	add	r3, r2
 800053a:	687a      	ldr	r2, [r7, #4]
 800053c:	4619      	mov	r1, r3
 800053e:	68b8      	ldr	r0, [r7, #8]
 8000540:	f002 f9ae 	bl	80028a0 <memcpy>
		local_host.pos += buf_len;
 8000544:	4b07      	ldr	r3, [pc, #28]	; (8000564 <mqtt_net_read_cb+0x44>)
 8000546:	f893 2101 	ldrb.w	r2, [r3, #257]	; 0x101
 800054a:	687b      	ldr	r3, [r7, #4]
 800054c:	b2db      	uxtb	r3, r3
 800054e:	4413      	add	r3, r2
 8000550:	b2da      	uxtb	r2, r3
 8000552:	4b04      	ldr	r3, [pc, #16]	; (8000564 <mqtt_net_read_cb+0x44>)
 8000554:	f883 2101 	strb.w	r2, [r3, #257]	; 0x101
		return buf_len;
 8000558:	687b      	ldr	r3, [r7, #4]
		;
	}
 800055a:	4618      	mov	r0, r3
 800055c:	3710      	adds	r7, #16
 800055e:	46bd      	mov	sp, r7
 8000560:	bd80      	pop	{r7, pc}
 8000562:	bf00      	nop
 8000564:	20000040 	.word	0x20000040

08000568 <mqtt_net_write_cb>:
//		l3_send_packet(broker_address, buf, buf_len);
//		return buf_len;
//	}


	int mqtt_net_write_cb(void *context, const byte* buf, int buf_len, int timeout_ms){
 8000568:	b580      	push	{r7, lr}
 800056a:	b084      	sub	sp, #16
 800056c:	af00      	add	r7, sp, #0
 800056e:	60f8      	str	r0, [r7, #12]
 8000570:	60b9      	str	r1, [r7, #8]
 8000572:	607a      	str	r2, [r7, #4]
 8000574:	603b      	str	r3, [r7, #0]
		packet_send_localhost(buf, buf_len);
 8000576:	687b      	ldr	r3, [r7, #4]
 8000578:	b2db      	uxtb	r3, r3
 800057a:	4619      	mov	r1, r3
 800057c:	68b8      	ldr	r0, [r7, #8]
 800057e:	f7ff ff99 	bl	80004b4 <packet_send_localhost>
		return 0;
 8000582:	2300      	movs	r3, #0
	}
 8000584:	4618      	mov	r0, r3
 8000586:	3710      	adds	r7, #16
 8000588:	46bd      	mov	sp, r7
 800058a:	bd80      	pop	{r7, pc}

0800058c <mqtt_net_disconnect_cb>:


	int mqtt_net_disconnect_cb(void *context){
 800058c:	b480      	push	{r7}
 800058e:	b083      	sub	sp, #12
 8000590:	af00      	add	r7, sp, #0
 8000592:	6078      	str	r0, [r7, #4]
		return 0;
 8000594:	2300      	movs	r3, #0
	}
 8000596:	4618      	mov	r0, r3
 8000598:	370c      	adds	r7, #12
 800059a:	46bd      	mov	sp, r7
 800059c:	bc80      	pop	{r7}
 800059e:	4770      	bx	lr

080005a0 <main>:

	MqttNet net;
int main()
{
 80005a0:	b580      	push	{r7, lr}
 80005a2:	b0e8      	sub	sp, #416	; 0x1a0
 80005a4:	af04      	add	r7, sp, #16


	memset(&local_host, 0, 256);
 80005a6:	f44f 7280 	mov.w	r2, #256	; 0x100
 80005aa:	2100      	movs	r1, #0
 80005ac:	489b      	ldr	r0, [pc, #620]	; (800081c <main+0x27c>)
 80005ae:	f002 f982 	bl	80028b6 <memset>

    nrf24_init();
 80005b2:	f001 fbb2 	bl	8001d1a <nrf24_init>
	nRF24_restore_defaults();
 80005b6:	f001 fbbc 	bl	8001d32 <nRF24_restore_defaults>


    
    /* Channel #2 , payload length: 4 */
    nrf24_config(2,32);
 80005ba:	2120      	movs	r1, #32
 80005bc:	2002      	movs	r0, #2
 80005be:	f001 fc15 	bl	8001dec <nrf24_config>
 
    /* Set the device addresses */
    nrf24_tx_address(tx_address);
 80005c2:	4897      	ldr	r0, [pc, #604]	; (8000820 <main+0x280>)
 80005c4:	f001 fc6f 	bl	8001ea6 <nrf24_tx_address>
    nrf24_rx_address(rx_address);
 80005c8:	4896      	ldr	r0, [pc, #600]	; (8000824 <main+0x284>)
 80005ca:	f001 fc59 	bl	8001e80 <nrf24_rx_address>
    
	RCC_APB2PeriphClockCmd(RCC_APB2Periph_GPIOC, ENABLE);
 80005ce:	2101      	movs	r1, #1
 80005d0:	2010      	movs	r0, #16
 80005d2:	f7ff fe9b 	bl	800030c <RCC_APB2PeriphClockCmd>


	GPIO_InitTypeDef PORT;
	PORT.GPIO_Mode = GPIO_Mode_Out_PP;
 80005d6:	2310      	movs	r3, #16
 80005d8:	f887 316f 	strb.w	r3, [r7, #367]	; 0x16f
	PORT.GPIO_Speed = GPIO_Speed_2MHz;
 80005dc:	2302      	movs	r3, #2
 80005de:	f887 316e 	strb.w	r3, [r7, #366]	; 0x16e
	PORT.GPIO_Pin = GPIO_Pin_13;
 80005e2:	f44f 5300 	mov.w	r3, #8192	; 0x2000
 80005e6:	f8a7 316c 	strh.w	r3, [r7, #364]	; 0x16c
	GPIO_Init(GPIOC, &PORT);
 80005ea:	f507 73b6 	add.w	r3, r7, #364	; 0x16c
 80005ee:	4619      	mov	r1, r3
 80005f0:	488d      	ldr	r0, [pc, #564]	; (8000828 <main+0x288>)
 80005f2:	f7ff fdb3 	bl	800015c <GPIO_Init>
	GPIOC->ODR |= GPIO_Pin_13;
 80005f6:	4a8c      	ldr	r2, [pc, #560]	; (8000828 <main+0x288>)
 80005f8:	4b8b      	ldr	r3, [pc, #556]	; (8000828 <main+0x288>)
 80005fa:	68db      	ldr	r3, [r3, #12]
 80005fc:	f443 5300 	orr.w	r3, r3, #8192	; 0x2000
 8000600:	60d3      	str	r3, [r2, #12]
    


	PORT.GPIO_Mode =  GPIO_Mode_IPU;
 8000602:	2348      	movs	r3, #72	; 0x48
 8000604:	f887 316f 	strb.w	r3, [r7, #367]	; 0x16f
	PORT.GPIO_Speed = GPIO_Speed_2MHz;
 8000608:	2302      	movs	r3, #2
 800060a:	f887 316e 	strb.w	r3, [r7, #366]	; 0x16e
	PORT.GPIO_Pin = GPIO_Pin_11;
 800060e:	f44f 6300 	mov.w	r3, #2048	; 0x800
 8000612:	f8a7 316c 	strh.w	r3, [r7, #364]	; 0x16c
	GPIO_Init(GPIOB, &PORT);
 8000616:	f507 73b6 	add.w	r3, r7, #364	; 0x16c
 800061a:	4619      	mov	r1, r3
 800061c:	4883      	ldr	r0, [pc, #524]	; (800082c <main+0x28c>)
 800061e:	f7ff fd9d 	bl	800015c <GPIO_Init>
	GPIOC->ODR |= GPIO_Pin_13;
 8000622:	4a81      	ldr	r2, [pc, #516]	; (8000828 <main+0x288>)
 8000624:	4b80      	ldr	r3, [pc, #512]	; (8000828 <main+0x288>)
 8000626:	68db      	ldr	r3, [r3, #12]
 8000628:	f443 5300 	orr.w	r3, r3, #8192	; 0x2000
 800062c:	60d3      	str	r3, [r2, #12]


	MqttClient client;

	net.connect = mqt_net_connect_cb;
 800062e:	4b80      	ldr	r3, [pc, #512]	; (8000830 <main+0x290>)
 8000630:	4a80      	ldr	r2, [pc, #512]	; (8000834 <main+0x294>)
 8000632:	605a      	str	r2, [r3, #4]
	net.read = mqtt_net_read_cb;
 8000634:	4b7e      	ldr	r3, [pc, #504]	; (8000830 <main+0x290>)
 8000636:	4a80      	ldr	r2, [pc, #512]	; (8000838 <main+0x298>)
 8000638:	609a      	str	r2, [r3, #8]
	net.write = mqtt_net_write_cb;
 800063a:	4b7d      	ldr	r3, [pc, #500]	; (8000830 <main+0x290>)
 800063c:	4a7f      	ldr	r2, [pc, #508]	; (800083c <main+0x29c>)
 800063e:	60da      	str	r2, [r3, #12]
	net.disconnect = mqtt_net_disconnect_cb;
 8000640:	4b7b      	ldr	r3, [pc, #492]	; (8000830 <main+0x290>)
 8000642:	4a7f      	ldr	r2, [pc, #508]	; (8000840 <main+0x2a0>)
 8000644:	611a      	str	r2, [r3, #16]


	uint8_t * tx_buf = local_host.data;
 8000646:	4b75      	ldr	r3, [pc, #468]	; (800081c <main+0x27c>)
 8000648:	f8c7 318c 	str.w	r3, [r7, #396]	; 0x18c
	memset(tx_buf, 0, 64);
 800064c:	2240      	movs	r2, #64	; 0x40
 800064e:	2100      	movs	r1, #0
 8000650:	f8d7 018c 	ldr.w	r0, [r7, #396]	; 0x18c
 8000654:	f002 f92f 	bl	80028b6 <memset>
	uint8_t tx_buf_len = 64;
 8000658:	2340      	movs	r3, #64	; 0x40
 800065a:	f887 318b 	strb.w	r3, [r7, #395]	; 0x18b
	uint8_t * rx_buf = local_host.data;
 800065e:	4b6f      	ldr	r3, [pc, #444]	; (800081c <main+0x27c>)
 8000660:	f8c7 3184 	str.w	r3, [r7, #388]	; 0x184
	int rx_buf_len =64;
 8000664:	2340      	movs	r3, #64	; 0x40
 8000666:	f8c7 3180 	str.w	r3, [r7, #384]	; 0x180
	int cmd_timeout_ms =500;
 800066a:	f44f 73fa 	mov.w	r3, #500	; 0x1f4
 800066e:	f8c7 317c 	str.w	r3, [r7, #380]	; 0x17c
	MqttClient_Init(&client, &net, mqtt_message_cb, tx_buf, tx_buf_len, rx_buf, rx_buf_len, cmd_timeout_ms);
 8000672:	f897 318b 	ldrb.w	r3, [r7, #395]	; 0x18b
 8000676:	f507 7080 	add.w	r0, r7, #256	; 0x100
 800067a:	f8d7 217c 	ldr.w	r2, [r7, #380]	; 0x17c
 800067e:	9203      	str	r2, [sp, #12]
 8000680:	f8d7 2180 	ldr.w	r2, [r7, #384]	; 0x180
 8000684:	9202      	str	r2, [sp, #8]
 8000686:	f8d7 2184 	ldr.w	r2, [r7, #388]	; 0x184
 800068a:	9201      	str	r2, [sp, #4]
 800068c:	9300      	str	r3, [sp, #0]
 800068e:	f8d7 318c 	ldr.w	r3, [r7, #396]	; 0x18c
 8000692:	4a6c      	ldr	r2, [pc, #432]	; (8000844 <main+0x2a4>)
 8000694:	4966      	ldr	r1, [pc, #408]	; (8000830 <main+0x290>)
 8000696:	f000 faf7 	bl	8000c88 <MqttClient_Init>

	MqttConnect mqtt_con;
	mqtt_con.clean_session =0;
 800069a:	2300      	movs	r3, #0
 800069c:	f887 30e4 	strb.w	r3, [r7, #228]	; 0xe4
	mqtt_con.client_id = "rt1";
 80006a0:	4b69      	ldr	r3, [pc, #420]	; (8000848 <main+0x2a8>)
 80006a2:	f8c7 30e8 	str.w	r3, [r7, #232]	; 0xe8
	mqtt_con.enable_lwt = 0;
 80006a6:	2300      	movs	r3, #0
 80006a8:	f887 30ec 	strb.w	r3, [r7, #236]	; 0xec
	mqtt_con.keep_alive_sec =30;
 80006ac:	231e      	movs	r3, #30
 80006ae:	f8a7 30e2 	strh.w	r3, [r7, #226]	; 0xe2
	mqtt_con.stat = MQTT_MSG_BEGIN;
 80006b2:	2300      	movs	r3, #0
 80006b4:	f887 30e0 	strb.w	r3, [r7, #224]	; 0xe0
	mqtt_con.username ="bedroomTMP1";
 80006b8:	4b64      	ldr	r3, [pc, #400]	; (800084c <main+0x2ac>)
 80006ba:	f8c7 30f4 	str.w	r3, [r7, #244]	; 0xf4
	mqtt_con.password = "passw0rd";
 80006be:	4b64      	ldr	r3, [pc, #400]	; (8000850 <main+0x2b0>)
 80006c0:	f8c7 30f8 	str.w	r3, [r7, #248]	; 0xf8
	MqttClient_Connect(&client, &mqtt_con);
 80006c4:	f107 02e0 	add.w	r2, r7, #224	; 0xe0
 80006c8:	f507 7380 	add.w	r3, r7, #256	; 0x100
 80006cc:	4611      	mov	r1, r2
 80006ce:	4618      	mov	r0, r3
 80006d0:	f000 fb16 	bl	8000d00 <MqttClient_Connect>

	MqttEncode_Connect(client.tx_buf, 100, &mqtt_con);
 80006d4:	f8d7 3108 	ldr.w	r3, [r7, #264]	; 0x108
 80006d8:	f107 02e0 	add.w	r2, r7, #224	; 0xe0
 80006dc:	2164      	movs	r1, #100	; 0x64
 80006de:	4618      	mov	r0, r3
 80006e0:	f000 fd12 	bl	8001108 <MqttEncode_Connect>
	conn_pck_t conn_pck;


	conn_header_t header;
	read_conn_header(&header, client.tx_buf);
 80006e4:	f8d7 2108 	ldr.w	r2, [r7, #264]	; 0x108
 80006e8:	f107 03cc 	add.w	r3, r7, #204	; 0xcc
 80006ec:	4611      	mov	r1, r2
 80006ee:	4618      	mov	r0, r3
 80006f0:	f001 ff3a 	bl	8002568 <read_conn_header>
//	decode_connect(client.tx_buf, &conn_pck);


	MqttPublish publish;

	const char* test_topic1 = "flat/livingroom/temp/1";
 80006f4:	4b57      	ldr	r3, [pc, #348]	; (8000854 <main+0x2b4>)
 80006f6:	f8c7 3178 	str.w	r3, [r7, #376]	; 0x178
	const char* test_topic2 = "flat/bedroom/humidity/2";
 80006fa:	4b57      	ldr	r3, [pc, #348]	; (8000858 <main+0x2b8>)
 80006fc:	f8c7 3174 	str.w	r3, [r7, #372]	; 0x174
	publish.topic_name = test_topic1;
 8000700:	f8d7 3178 	ldr.w	r3, [r7, #376]	; 0x178
 8000704:	f8c7 30ac 	str.w	r3, [r7, #172]	; 0xac
	publish.topic_name_len = strlen(test_topic1);
 8000708:	f8d7 0178 	ldr.w	r0, [r7, #376]	; 0x178
 800070c:	f7ff fd1e 	bl	800014c <strlen>
 8000710:	4603      	mov	r3, r0
 8000712:	b29b      	uxth	r3, r3
 8000714:	f8a7 30b0 	strh.w	r3, [r7, #176]	; 0xb0
	uint8_t temp = 25;
 8000718:	2319      	movs	r3, #25
 800071a:	f887 30a3 	strb.w	r3, [r7, #163]	; 0xa3
	publish.buffer = &temp;
 800071e:	f107 03a3 	add.w	r3, r7, #163	; 0xa3
 8000722:	f8c7 30b8 	str.w	r3, [r7, #184]	; 0xb8
	publish.total_len = sizeof(temp);
 8000726:	2301      	movs	r3, #1
 8000728:	f8c7 30b4 	str.w	r3, [r7, #180]	; 0xb4
	uint16_t pck_id = 1;
 800072c:	2301      	movs	r3, #1
 800072e:	f8a7 3172 	strh.w	r3, [r7, #370]	; 0x172
	publish.packet_id = pck_id;
 8000732:	f8b7 3172 	ldrh.w	r3, [r7, #370]	; 0x172
 8000736:	f8a7 30a6 	strh.w	r3, [r7, #166]	; 0xa6
	publish.qos = 1;
 800073a:	2301      	movs	r3, #1
 800073c:	f887 30a9 	strb.w	r3, [r7, #169]	; 0xa9
	publish.retain = (byte) true;
 8000740:	2301      	movs	r3, #1
 8000742:	f887 30aa 	strb.w	r3, [r7, #170]	; 0xaa
	publish.stat = 0;
 8000746:	2300      	movs	r3, #0
 8000748:	f887 30a4 	strb.w	r3, [r7, #164]	; 0xa4

	MqttEncode_Publish(client.tx_buf, client.tx_buf_len, &publish);
 800074c:	f8d7 3108 	ldr.w	r3, [r7, #264]	; 0x108
 8000750:	f8d7 110c 	ldr.w	r1, [r7, #268]	; 0x10c
 8000754:	f107 02a4 	add.w	r2, r7, #164	; 0xa4
 8000758:	4618      	mov	r0, r3
 800075a:	f000 fe3d 	bl	80013d8 <MqttEncode_Publish>
	pub_pck_t  pub_pck;
	broker_decode_publish(local_host.data, &pub_pck);
 800075e:	f107 0388 	add.w	r3, r7, #136	; 0x88
 8000762:	4619      	mov	r1, r3
 8000764:	482d      	ldr	r0, [pc, #180]	; (800081c <main+0x27c>)
 8000766:	f001 ff27 	bl	80025b8 <broker_decode_publish>


    MqttTopic topics[2];
    topics[0].qos =1;
 800076a:	f107 0378 	add.w	r3, r7, #120	; 0x78
 800076e:	2201      	movs	r2, #1
 8000770:	711a      	strb	r2, [r3, #4]
    topics[0].topic_filter = test_topic1;
 8000772:	f107 0378 	add.w	r3, r7, #120	; 0x78
 8000776:	f8d7 2178 	ldr.w	r2, [r7, #376]	; 0x178
 800077a:	601a      	str	r2, [r3, #0]

    topics[1].qos =1;
 800077c:	f107 0378 	add.w	r3, r7, #120	; 0x78
 8000780:	2201      	movs	r2, #1
 8000782:	731a      	strb	r2, [r3, #12]
    topics[1].topic_filter = test_topic2;
 8000784:	f107 0378 	add.w	r3, r7, #120	; 0x78
 8000788:	f8d7 2174 	ldr.w	r2, [r7, #372]	; 0x174
 800078c:	609a      	str	r2, [r3, #8]



	MqttSubscribe subscribe;
	subscribe.packet_id = pck_id;
 800078e:	f107 036c 	add.w	r3, r7, #108	; 0x6c
 8000792:	f8b7 2172 	ldrh.w	r2, [r7, #370]	; 0x172
 8000796:	805a      	strh	r2, [r3, #2]
	uint8_t topic_count = 2;
 8000798:	2302      	movs	r3, #2
 800079a:	f887 3171 	strb.w	r3, [r7, #369]	; 0x171
	subscribe.topic_count = topic_count;
 800079e:	f897 2171 	ldrb.w	r2, [r7, #369]	; 0x171
 80007a2:	f107 036c 	add.w	r3, r7, #108	; 0x6c
 80007a6:	605a      	str	r2, [r3, #4]
	subscribe.topics = topics;
 80007a8:	f107 036c 	add.w	r3, r7, #108	; 0x6c
 80007ac:	f107 0278 	add.w	r2, r7, #120	; 0x78
 80007b0:	609a      	str	r2, [r3, #8]

	memset(client.tx_buf, 0, 100);
 80007b2:	f8d7 3108 	ldr.w	r3, [r7, #264]	; 0x108
 80007b6:	2264      	movs	r2, #100	; 0x64
 80007b8:	2100      	movs	r1, #0
 80007ba:	4618      	mov	r0, r3
 80007bc:	f002 f87b 	bl	80028b6 <memset>
	MqttEncode_Subscribe(client.tx_buf, client.tx_buf_len, &subscribe);
 80007c0:	f8d7 3108 	ldr.w	r3, [r7, #264]	; 0x108
 80007c4:	f8d7 110c 	ldr.w	r1, [r7, #268]	; 0x10c
 80007c8:	f107 026c 	add.w	r2, r7, #108	; 0x6c
 80007cc:	4618      	mov	r0, r3
 80007ce:	f000 ff8c 	bl	80016ea <MqttEncode_Subscribe>
	sub_pck_t sub_pck;
	broker_decode_subscribe(client.tx_buf, &sub_pck);
 80007d2:	f8d7 3108 	ldr.w	r3, [r7, #264]	; 0x108
 80007d6:	463a      	mov	r2, r7
 80007d8:	4611      	mov	r1, r2
 80007da:	4618      	mov	r0, r3
 80007dc:	f001 ff94 	bl	8002708 <broker_decode_subscribe>
//    		// nrf24_powerDown();
//
//       }
//

	   if(nrf24_dataReady())
 80007e0:	f001 fb73 	bl	8001eca <nrf24_dataReady>
 80007e4:	4603      	mov	r3, r0
 80007e6:	2b00      	cmp	r3, #0
 80007e8:	d014      	beq.n	8000814 <main+0x274>
		{
			//GPIOC->ODR ^=  GPIO_Pin_13;
			nrf24_getData(data_array);
 80007ea:	481c      	ldr	r0, [pc, #112]	; (800085c <main+0x2bc>)
 80007ec:	f001 fb98 	bl	8001f20 <nrf24_getData>
			bool res = l3_receive_packet(data_array,layer3_buff );
 80007f0:	491b      	ldr	r1, [pc, #108]	; (8000860 <main+0x2c0>)
 80007f2:	481a      	ldr	r0, [pc, #104]	; (800085c <main+0x2bc>)
 80007f4:	f001 fa65 	bl	8001cc2 <l3_receive_packet>
 80007f8:	4603      	mov	r3, r0
 80007fa:	f887 3170 	strb.w	r3, [r7, #368]	; 0x170
			if (res){
 80007fe:	f897 3170 	ldrb.w	r3, [r7, #368]	; 0x170
 8000802:	2b00      	cmp	r3, #0
 8000804:	d006      	beq.n	8000814 <main+0x274>
				GPIOC->BRR = GPIO_Pin_13;
 8000806:	4b08      	ldr	r3, [pc, #32]	; (8000828 <main+0x288>)
 8000808:	f44f 5200 	mov.w	r2, #8192	; 0x2000
 800080c:	615a      	str	r2, [r3, #20]
				nrf24_send(data_array);
 800080e:	4813      	ldr	r0, [pc, #76]	; (800085c <main+0x2bc>)
 8000810:	f001 fba4 	bl	8001f5c <nrf24_send>
//				debug_var++;
//			}


		}
		_delay_ms(10);
 8000814:	200a      	movs	r0, #10
 8000816:	f001 fa37 	bl	8001c88 <_delay_ms>
	   if(nrf24_dataReady())
 800081a:	e7e1      	b.n	80007e0 <main+0x240>
 800081c:	20000040 	.word	0x20000040
 8000820:	20000000 	.word	0x20000000
 8000824:	20000008 	.word	0x20000008
 8000828:	40011000 	.word	0x40011000
 800082c:	40010c00 	.word	0x40010c00
 8000830:	2000002c 	.word	0x2000002c
 8000834:	08000503 	.word	0x08000503
 8000838:	08000521 	.word	0x08000521
 800083c:	08000569 	.word	0x08000569
 8000840:	0800058d 	.word	0x0800058d
 8000844:	080004e1 	.word	0x080004e1
 8000848:	080028e0 	.word	0x080028e0
 800084c:	080028e4 	.word	0x080028e4
 8000850:	080028f0 	.word	0x080028f0
 8000854:	080028fc 	.word	0x080028fc
 8000858:	08002914 	.word	0x08002914
 800085c:	20000144 	.word	0x20000144
 8000860:	20000740 	.word	0x20000740

08000864 <MqttClient_HandlePayload>:
#endif

/* Private functions */
static int MqttClient_HandlePayload(MqttClient* client, MqttMessage* msg,
    int timeout_ms, void* p_decode, word16* packet_id)
{
 8000864:	b590      	push	{r4, r7, lr}
 8000866:	b091      	sub	sp, #68	; 0x44
 8000868:	af00      	add	r7, sp, #0
 800086a:	60f8      	str	r0, [r7, #12]
 800086c:	60b9      	str	r1, [r7, #8]
 800086e:	607a      	str	r2, [r7, #4]
 8000870:	603b      	str	r3, [r7, #0]
    int rc = MQTT_CODE_SUCCESS;
 8000872:	2300      	movs	r3, #0
 8000874:	63fb      	str	r3, [r7, #60]	; 0x3c

    switch (msg->type)
 8000876:	68bb      	ldr	r3, [r7, #8]
 8000878:	791b      	ldrb	r3, [r3, #4]
 800087a:	3b02      	subs	r3, #2
 800087c:	2b0b      	cmp	r3, #11
 800087e:	f200 817e 	bhi.w	8000b7e <MqttClient_HandlePayload+0x31a>
 8000882:	a201      	add	r2, pc, #4	; (adr r2, 8000888 <MqttClient_HandlePayload+0x24>)
 8000884:	f852 f023 	ldr.w	pc, [r2, r3, lsl #2]
 8000888:	080008b9 	.word	0x080008b9
 800088c:	080008df 	.word	0x080008df
 8000890:	08000a6f 	.word	0x08000a6f
 8000894:	08000a6f 	.word	0x08000a6f
 8000898:	08000a6f 	.word	0x08000a6f
 800089c:	08000a6f 	.word	0x08000a6f
 80008a0:	08000b7f 	.word	0x08000b7f
 80008a4:	08000aff 	.word	0x08000aff
 80008a8:	08000b7f 	.word	0x08000b7f
 80008ac:	08000b35 	.word	0x08000b35
 80008b0:	08000b7f 	.word	0x08000b7f
 80008b4:	08000b6b 	.word	0x08000b6b
    {
        case MQTT_PACKET_TYPE_CONNECT_ACK:
        {
            /* Decode connect ack */
            MqttConnectAck connect_ack, *p_connect_ack = &connect_ack;
 80008b8:	f107 0324 	add.w	r3, r7, #36	; 0x24
 80008bc:	63bb      	str	r3, [r7, #56]	; 0x38
            if (p_decode) {
 80008be:	683b      	ldr	r3, [r7, #0]
 80008c0:	2b00      	cmp	r3, #0
 80008c2:	d001      	beq.n	80008c8 <MqttClient_HandlePayload+0x64>
                p_connect_ack = (MqttConnectAck*)p_decode;
 80008c4:	683b      	ldr	r3, [r7, #0]
 80008c6:	63bb      	str	r3, [r7, #56]	; 0x38
            }
            rc = MqttDecode_ConnectAck(client->rx_buf, client->packet.buf_len,
 80008c8:	68fb      	ldr	r3, [r7, #12]
 80008ca:	6918      	ldr	r0, [r3, #16]
 80008cc:	68fb      	ldr	r3, [r7, #12]
 80008ce:	6a9b      	ldr	r3, [r3, #40]	; 0x28
 80008d0:	6bba      	ldr	r2, [r7, #56]	; 0x38
 80008d2:	4619      	mov	r1, r3
 80008d4:	f000 fd48 	bl	8001368 <MqttDecode_ConnectAck>
 80008d8:	63f8      	str	r0, [r7, #60]	; 0x3c
                                                                p_connect_ack);
            break;
 80008da:	bf00      	nop
 80008dc:	e154      	b.n	8000b88 <MqttClient_HandlePayload+0x324>
        }
        case MQTT_PACKET_TYPE_PUBLISH:
        {
            byte msg_done;

            if (msg->buffer_new) {
 80008de:	68bb      	ldr	r3, [r7, #8]
 80008e0:	7e1b      	ldrb	r3, [r3, #24]
 80008e2:	2b00      	cmp	r3, #0
 80008e4:	d00d      	beq.n	8000902 <MqttClient_HandlePayload+0x9e>
                /* Decode publish message */
                rc = MqttDecode_Publish(client->rx_buf, client->packet.buf_len, msg);
 80008e6:	68fb      	ldr	r3, [r7, #12]
 80008e8:	6918      	ldr	r0, [r3, #16]
 80008ea:	68fb      	ldr	r3, [r7, #12]
 80008ec:	6a9b      	ldr	r3, [r3, #40]	; 0x28
 80008ee:	68ba      	ldr	r2, [r7, #8]
 80008f0:	4619      	mov	r1, r3
 80008f2:	f000 fe00 	bl	80014f6 <MqttDecode_Publish>
 80008f6:	63f8      	str	r0, [r7, #60]	; 0x3c
                if (rc <= 0) {
 80008f8:	6bfb      	ldr	r3, [r7, #60]	; 0x3c
 80008fa:	2b00      	cmp	r3, #0
 80008fc:	dc01      	bgt.n	8000902 <MqttClient_HandlePayload+0x9e>
                    return rc;
 80008fe:	6bfb      	ldr	r3, [r7, #60]	; 0x3c
 8000900:	e143      	b.n	8000b8a <MqttClient_HandlePayload+0x326>
            }

            /* Handle packet callback and read remaining payload */
            do {
                /* Determine if message is done */
                msg_done = ((msg->buffer_pos + msg->buffer_len) >= msg->total_len) ? 1 : 0;
 8000902:	68bb      	ldr	r3, [r7, #8]
 8000904:	6a1a      	ldr	r2, [r3, #32]
 8000906:	68bb      	ldr	r3, [r7, #8]
 8000908:	69db      	ldr	r3, [r3, #28]
 800090a:	441a      	add	r2, r3
 800090c:	68bb      	ldr	r3, [r7, #8]
 800090e:	691b      	ldr	r3, [r3, #16]
 8000910:	429a      	cmp	r2, r3
 8000912:	bf2c      	ite	cs
 8000914:	2301      	movcs	r3, #1
 8000916:	2300      	movcc	r3, #0
 8000918:	b2db      	uxtb	r3, r3
 800091a:	f887 3027 	strb.w	r3, [r7, #39]	; 0x27

                if (msg->stat != MQTT_MSG_READ_PAYLOAD) {
 800091e:	68bb      	ldr	r3, [r7, #8]
 8000920:	781b      	ldrb	r3, [r3, #0]
 8000922:	2b04      	cmp	r3, #4
 8000924:	d029      	beq.n	800097a <MqttClient_HandlePayload+0x116>
                    /* Issue callback for new message */
                    if (client->msg_cb) {
 8000926:	68fb      	ldr	r3, [r7, #12]
 8000928:	6bdb      	ldr	r3, [r3, #60]	; 0x3c
 800092a:	2b00      	cmp	r3, #0
 800092c:	d022      	beq.n	8000974 <MqttClient_HandlePayload+0x110>
                        if (!msg->buffer_new) {
 800092e:	68bb      	ldr	r3, [r7, #8]
 8000930:	7e1b      	ldrb	r3, [r3, #24]
 8000932:	2b00      	cmp	r3, #0
 8000934:	d105      	bne.n	8000942 <MqttClient_HandlePayload+0xde>
                            /* Reset topic name since valid on new message only */
                            msg->topic_name = NULL;
 8000936:	68bb      	ldr	r3, [r7, #8]
 8000938:	2200      	movs	r2, #0
 800093a:	609a      	str	r2, [r3, #8]
                            msg->topic_name_len = 0;
 800093c:	68bb      	ldr	r3, [r7, #8]
 800093e:	2200      	movs	r2, #0
 8000940:	819a      	strh	r2, [r3, #12]
                        }
                        /* if using the temp publish message buffer,
                           then populate message context with client context */
                        if (&client->msg == msg)
 8000942:	68fb      	ldr	r3, [r7, #12]
 8000944:	f103 0240 	add.w	r2, r3, #64	; 0x40
 8000948:	68bb      	ldr	r3, [r7, #8]
 800094a:	429a      	cmp	r2, r3
 800094c:	d103      	bne.n	8000956 <MqttClient_HandlePayload+0xf2>
                            msg->ctx = client->ctx;
 800094e:	68fb      	ldr	r3, [r7, #12]
 8000950:	6e9a      	ldr	r2, [r3, #104]	; 0x68
 8000952:	68bb      	ldr	r3, [r7, #8]
 8000954:	625a      	str	r2, [r3, #36]	; 0x24
                        rc = client->msg_cb(client, msg, msg->buffer_new, msg_done);
 8000956:	68fb      	ldr	r3, [r7, #12]
 8000958:	6bdc      	ldr	r4, [r3, #60]	; 0x3c
 800095a:	68bb      	ldr	r3, [r7, #8]
 800095c:	7e1a      	ldrb	r2, [r3, #24]
 800095e:	f897 3027 	ldrb.w	r3, [r7, #39]	; 0x27
 8000962:	68b9      	ldr	r1, [r7, #8]
 8000964:	68f8      	ldr	r0, [r7, #12]
 8000966:	47a0      	blx	r4
 8000968:	63f8      	str	r0, [r7, #60]	; 0x3c
                        if (rc != MQTT_CODE_SUCCESS) {
 800096a:	6bfb      	ldr	r3, [r7, #60]	; 0x3c
 800096c:	2b00      	cmp	r3, #0
 800096e:	d001      	beq.n	8000974 <MqttClient_HandlePayload+0x110>
                            return rc;
 8000970:	6bfb      	ldr	r3, [r7, #60]	; 0x3c
 8000972:	e10a      	b.n	8000b8a <MqttClient_HandlePayload+0x326>
                        };
                    }
                    msg->buffer_new = 0;
 8000974:	68bb      	ldr	r3, [r7, #8]
 8000976:	2200      	movs	r2, #0
 8000978:	761a      	strb	r2, [r3, #24]
                }

                /* Read payload */
                if (!msg_done) {
 800097a:	f897 3027 	ldrb.w	r3, [r7, #39]	; 0x27
 800097e:	2b00      	cmp	r3, #0
 8000980:	d13b      	bne.n	80009fa <MqttClient_HandlePayload+0x196>
                    int msg_len;

                    /* add last length to position and reset len */
                    msg->buffer_pos += msg->buffer_len;
 8000982:	68bb      	ldr	r3, [r7, #8]
 8000984:	6a1a      	ldr	r2, [r3, #32]
 8000986:	68bb      	ldr	r3, [r7, #8]
 8000988:	69db      	ldr	r3, [r3, #28]
 800098a:	441a      	add	r2, r3
 800098c:	68bb      	ldr	r3, [r7, #8]
 800098e:	621a      	str	r2, [r3, #32]
                    msg->buffer_len = 0;
 8000990:	68bb      	ldr	r3, [r7, #8]
 8000992:	2200      	movs	r2, #0
 8000994:	61da      	str	r2, [r3, #28]

                    /* set state to reading payload */
                    msg->stat = MQTT_MSG_READ_PAYLOAD;
 8000996:	68bb      	ldr	r3, [r7, #8]
 8000998:	2204      	movs	r2, #4
 800099a:	701a      	strb	r2, [r3, #0]

                    msg_len = (msg->total_len - msg->buffer_pos);
 800099c:	68bb      	ldr	r3, [r7, #8]
 800099e:	691a      	ldr	r2, [r3, #16]
 80009a0:	68bb      	ldr	r3, [r7, #8]
 80009a2:	6a1b      	ldr	r3, [r3, #32]
 80009a4:	1ad3      	subs	r3, r2, r3
 80009a6:	637b      	str	r3, [r7, #52]	; 0x34
                    if (msg_len > client->rx_buf_len) {
 80009a8:	68fb      	ldr	r3, [r7, #12]
 80009aa:	695a      	ldr	r2, [r3, #20]
 80009ac:	6b7b      	ldr	r3, [r7, #52]	; 0x34
 80009ae:	429a      	cmp	r2, r3
 80009b0:	da02      	bge.n	80009b8 <MqttClient_HandlePayload+0x154>
                        msg_len = client->rx_buf_len;
 80009b2:	68fb      	ldr	r3, [r7, #12]
 80009b4:	695b      	ldr	r3, [r3, #20]
 80009b6:	637b      	str	r3, [r7, #52]	; 0x34
                    }

                    /* make sure there is something to read */
                    rc = MQTT_CODE_SUCCESS;
 80009b8:	2300      	movs	r3, #0
 80009ba:	63fb      	str	r3, [r7, #60]	; 0x3c
                    if (msg_len > 0) {
 80009bc:	6b7b      	ldr	r3, [r7, #52]	; 0x34
 80009be:	2b00      	cmp	r3, #0
 80009c0:	dd16      	ble.n	80009f0 <MqttClient_HandlePayload+0x18c>
                        rc = MqttSocket_Read(client, client->rx_buf, msg_len, timeout_ms);
 80009c2:	68fb      	ldr	r3, [r7, #12]
 80009c4:	6919      	ldr	r1, [r3, #16]
 80009c6:	687b      	ldr	r3, [r7, #4]
 80009c8:	6b7a      	ldr	r2, [r7, #52]	; 0x34
 80009ca:	68f8      	ldr	r0, [r7, #12]
 80009cc:	f001 f90c 	bl	8001be8 <MqttSocket_Read>
 80009d0:	63f8      	str	r0, [r7, #60]	; 0x3c
                        if (rc > 0) {
 80009d2:	6bfb      	ldr	r3, [r7, #60]	; 0x3c
 80009d4:	2b00      	cmp	r3, #0
 80009d6:	dd0b      	ble.n	80009f0 <MqttClient_HandlePayload+0x18c>
                            /* make sure state is back to read */
                            msg->stat = MQTT_MSG_READ;
 80009d8:	68bb      	ldr	r3, [r7, #8]
 80009da:	2203      	movs	r2, #3
 80009dc:	701a      	strb	r2, [r3, #0]

                            /* Update message */
                            msg->buffer = client->rx_buf;
 80009de:	68fb      	ldr	r3, [r7, #12]
 80009e0:	691a      	ldr	r2, [r3, #16]
 80009e2:	68bb      	ldr	r3, [r7, #8]
 80009e4:	615a      	str	r2, [r3, #20]
                            msg->buffer_len = rc;
 80009e6:	6bfa      	ldr	r2, [r7, #60]	; 0x3c
 80009e8:	68bb      	ldr	r3, [r7, #8]
 80009ea:	61da      	str	r2, [r3, #28]
                            rc = MQTT_CODE_SUCCESS;
 80009ec:	2300      	movs	r3, #0
 80009ee:	63fb      	str	r3, [r7, #60]	; 0x3c
                        }
                    }
                    if (rc < 0) {
 80009f0:	6bfb      	ldr	r3, [r7, #60]	; 0x3c
 80009f2:	2b00      	cmp	r3, #0
 80009f4:	da01      	bge.n	80009fa <MqttClient_HandlePayload+0x196>
                        return rc;
 80009f6:	6bfb      	ldr	r3, [r7, #60]	; 0x3c
 80009f8:	e0c7      	b.n	8000b8a <MqttClient_HandlePayload+0x326>
                    }
                }
            } while (!msg_done);
 80009fa:	f897 3027 	ldrb.w	r3, [r7, #39]	; 0x27
 80009fe:	2b00      	cmp	r3, #0
 8000a00:	f43f af7f 	beq.w	8000902 <MqttClient_HandlePayload+0x9e>

            /* Handle Qos */
            if (msg->qos > MQTT_QOS_0) {
 8000a04:	68bb      	ldr	r3, [r7, #8]
 8000a06:	795b      	ldrb	r3, [r3, #5]
 8000a08:	2b00      	cmp	r3, #0
 8000a0a:	f000 80ba 	beq.w	8000b82 <MqttClient_HandlePayload+0x31e>
                MqttPublishResp publish_resp;
                MqttPacketType type;

                *packet_id = msg->packet_id;
 8000a0e:	68bb      	ldr	r3, [r7, #8]
 8000a10:	885a      	ldrh	r2, [r3, #2]
 8000a12:	6d3b      	ldr	r3, [r7, #80]	; 0x50
 8000a14:	801a      	strh	r2, [r3, #0]

                /* Determine packet type to write */
                type = (msg->qos == MQTT_QOS_1) ?
 8000a16:	68bb      	ldr	r3, [r7, #8]
 8000a18:	795b      	ldrb	r3, [r3, #5]
                    MQTT_PACKET_TYPE_PUBLISH_ACK :
 8000a1a:	2b01      	cmp	r3, #1
 8000a1c:	d101      	bne.n	8000a22 <MqttClient_HandlePayload+0x1be>
 8000a1e:	2304      	movs	r3, #4
 8000a20:	e000      	b.n	8000a24 <MqttClient_HandlePayload+0x1c0>
 8000a22:	2305      	movs	r3, #5
                type = (msg->qos == MQTT_QOS_1) ?
 8000a24:	f887 3026 	strb.w	r3, [r7, #38]	; 0x26
                    MQTT_PACKET_TYPE_PUBLISH_REC;
                publish_resp.packet_id = msg->packet_id;
 8000a28:	68bb      	ldr	r3, [r7, #8]
 8000a2a:	885b      	ldrh	r3, [r3, #2]
 8000a2c:	843b      	strh	r3, [r7, #32]

                /* Encode publish response */
                rc = MqttEncode_PublishResp(client->tx_buf,
 8000a2e:	68fb      	ldr	r3, [r7, #12]
 8000a30:	6898      	ldr	r0, [r3, #8]
 8000a32:	68fb      	ldr	r3, [r7, #12]
 8000a34:	68d9      	ldr	r1, [r3, #12]
 8000a36:	f107 0320 	add.w	r3, r7, #32
 8000a3a:	f897 2026 	ldrb.w	r2, [r7, #38]	; 0x26
 8000a3e:	f000 fdd1 	bl	80015e4 <MqttEncode_PublishResp>
 8000a42:	63f8      	str	r0, [r7, #60]	; 0x3c
                                    client->tx_buf_len, type, &publish_resp);
                if (rc <= 0) {
 8000a44:	6bfb      	ldr	r3, [r7, #60]	; 0x3c
 8000a46:	2b00      	cmp	r3, #0
 8000a48:	dc01      	bgt.n	8000a4e <MqttClient_HandlePayload+0x1ea>
                    return rc;
 8000a4a:	6bfb      	ldr	r3, [r7, #60]	; 0x3c
 8000a4c:	e09d      	b.n	8000b8a <MqttClient_HandlePayload+0x326>
                }
                client->packet.buf_len = rc;
 8000a4e:	68fb      	ldr	r3, [r7, #12]
 8000a50:	6bfa      	ldr	r2, [r7, #60]	; 0x3c
 8000a52:	629a      	str	r2, [r3, #40]	; 0x28

                /* Send packet */
                msg->stat = MQTT_MSG_BEGIN;
 8000a54:	68bb      	ldr	r3, [r7, #8]
 8000a56:	2200      	movs	r2, #0
 8000a58:	701a      	strb	r2, [r3, #0]
                rc = MqttPacket_Write(client, client->tx_buf,
 8000a5a:	68fb      	ldr	r3, [r7, #12]
 8000a5c:	6899      	ldr	r1, [r3, #8]
 8000a5e:	68fb      	ldr	r3, [r7, #12]
 8000a60:	6a9b      	ldr	r3, [r3, #40]	; 0x28
 8000a62:	461a      	mov	r2, r3
 8000a64:	68f8      	ldr	r0, [r7, #12]
 8000a66:	f000 ff62 	bl	800192e <MqttPacket_Write>
 8000a6a:	63f8      	str	r0, [r7, #60]	; 0x3c
                                                    client->packet.buf_len);
            }
            break;
 8000a6c:	e089      	b.n	8000b82 <MqttClient_HandlePayload+0x31e>
        case MQTT_PACKET_TYPE_PUBLISH_ACK:
        case MQTT_PACKET_TYPE_PUBLISH_REC:
        case MQTT_PACKET_TYPE_PUBLISH_REL:
        case MQTT_PACKET_TYPE_PUBLISH_COMP:
        {
            MqttPublishResp publish_resp, *p_publish_resp = &publish_resp;
 8000a6e:	f107 031c 	add.w	r3, r7, #28
 8000a72:	633b      	str	r3, [r7, #48]	; 0x30
            if (p_decode) {
 8000a74:	683b      	ldr	r3, [r7, #0]
 8000a76:	2b00      	cmp	r3, #0
 8000a78:	d001      	beq.n	8000a7e <MqttClient_HandlePayload+0x21a>
                p_publish_resp = (MqttPublishResp*)p_decode;
 8000a7a:	683b      	ldr	r3, [r7, #0]
 8000a7c:	633b      	str	r3, [r7, #48]	; 0x30
            }

            /* Decode publish response message */
            rc = MqttDecode_PublishResp(client->rx_buf, client->packet.buf_len,
 8000a7e:	68fb      	ldr	r3, [r7, #12]
 8000a80:	6918      	ldr	r0, [r3, #16]
 8000a82:	68fb      	ldr	r3, [r7, #12]
 8000a84:	6a99      	ldr	r1, [r3, #40]	; 0x28
 8000a86:	68bb      	ldr	r3, [r7, #8]
 8000a88:	791a      	ldrb	r2, [r3, #4]
 8000a8a:	6b3b      	ldr	r3, [r7, #48]	; 0x30
 8000a8c:	f000 fdf0 	bl	8001670 <MqttDecode_PublishResp>
 8000a90:	63f8      	str	r0, [r7, #60]	; 0x3c
                msg->type, p_publish_resp);
            if (rc <= 0) {
 8000a92:	6bfb      	ldr	r3, [r7, #60]	; 0x3c
 8000a94:	2b00      	cmp	r3, #0
 8000a96:	dc01      	bgt.n	8000a9c <MqttClient_HandlePayload+0x238>
                return rc;
 8000a98:	6bfb      	ldr	r3, [r7, #60]	; 0x3c
 8000a9a:	e076      	b.n	8000b8a <MqttClient_HandlePayload+0x326>
            }
            *packet_id = p_publish_resp->packet_id;
 8000a9c:	6b3b      	ldr	r3, [r7, #48]	; 0x30
 8000a9e:	881a      	ldrh	r2, [r3, #0]
 8000aa0:	6d3b      	ldr	r3, [r7, #80]	; 0x50
 8000aa2:	801a      	strh	r2, [r3, #0]

            /* If Qos then send response */
            if (msg->type == MQTT_PACKET_TYPE_PUBLISH_REC ||
 8000aa4:	68bb      	ldr	r3, [r7, #8]
 8000aa6:	791b      	ldrb	r3, [r3, #4]
 8000aa8:	2b05      	cmp	r3, #5
 8000aaa:	d003      	beq.n	8000ab4 <MqttClient_HandlePayload+0x250>
                msg->type == MQTT_PACKET_TYPE_PUBLISH_REL) {
 8000aac:	68bb      	ldr	r3, [r7, #8]
 8000aae:	791b      	ldrb	r3, [r3, #4]
            if (msg->type == MQTT_PACKET_TYPE_PUBLISH_REC ||
 8000ab0:	2b06      	cmp	r3, #6
 8000ab2:	d168      	bne.n	8000b86 <MqttClient_HandlePayload+0x322>

                /* Encode publish response */
                publish_resp.packet_id = p_publish_resp->packet_id;
 8000ab4:	6b3b      	ldr	r3, [r7, #48]	; 0x30
 8000ab6:	881b      	ldrh	r3, [r3, #0]
 8000ab8:	83bb      	strh	r3, [r7, #28]
                rc = MqttEncode_PublishResp(client->tx_buf,
 8000aba:	68fb      	ldr	r3, [r7, #12]
 8000abc:	6898      	ldr	r0, [r3, #8]
 8000abe:	68fb      	ldr	r3, [r7, #12]
 8000ac0:	68d9      	ldr	r1, [r3, #12]
                    client->tx_buf_len, msg->type+1, &publish_resp);
 8000ac2:	68bb      	ldr	r3, [r7, #8]
 8000ac4:	791b      	ldrb	r3, [r3, #4]
                rc = MqttEncode_PublishResp(client->tx_buf,
 8000ac6:	3301      	adds	r3, #1
 8000ac8:	b2da      	uxtb	r2, r3
 8000aca:	f107 031c 	add.w	r3, r7, #28
 8000ace:	f000 fd89 	bl	80015e4 <MqttEncode_PublishResp>
 8000ad2:	63f8      	str	r0, [r7, #60]	; 0x3c
                if (rc <= 0) {
 8000ad4:	6bfb      	ldr	r3, [r7, #60]	; 0x3c
 8000ad6:	2b00      	cmp	r3, #0
 8000ad8:	dc01      	bgt.n	8000ade <MqttClient_HandlePayload+0x27a>
                    return rc;
 8000ada:	6bfb      	ldr	r3, [r7, #60]	; 0x3c
 8000adc:	e055      	b.n	8000b8a <MqttClient_HandlePayload+0x326>
                }
                client->packet.buf_len = rc;
 8000ade:	68fb      	ldr	r3, [r7, #12]
 8000ae0:	6bfa      	ldr	r2, [r7, #60]	; 0x3c
 8000ae2:	629a      	str	r2, [r3, #40]	; 0x28

                /* Send packet */
                msg->stat = MQTT_MSG_BEGIN;
 8000ae4:	68bb      	ldr	r3, [r7, #8]
 8000ae6:	2200      	movs	r2, #0
 8000ae8:	701a      	strb	r2, [r3, #0]
                rc = MqttPacket_Write(client, client->tx_buf, client->packet.buf_len);
 8000aea:	68fb      	ldr	r3, [r7, #12]
 8000aec:	6899      	ldr	r1, [r3, #8]
 8000aee:	68fb      	ldr	r3, [r7, #12]
 8000af0:	6a9b      	ldr	r3, [r3, #40]	; 0x28
 8000af2:	461a      	mov	r2, r3
 8000af4:	68f8      	ldr	r0, [r7, #12]
 8000af6:	f000 ff1a 	bl	800192e <MqttPacket_Write>
 8000afa:	63f8      	str	r0, [r7, #60]	; 0x3c
 8000afc:	e044      	b.n	8000b88 <MqttClient_HandlePayload+0x324>
        }
        case MQTT_PACKET_TYPE_SUBSCRIBE_ACK:
        {
            /* Decode subscribe ack */
            MqttSubscribeAck subscribe_ack;
            MqttSubscribeAck *p_subscribe_ack = &subscribe_ack;
 8000afe:	f107 0314 	add.w	r3, r7, #20
 8000b02:	62fb      	str	r3, [r7, #44]	; 0x2c
            if (p_decode) {
 8000b04:	683b      	ldr	r3, [r7, #0]
 8000b06:	2b00      	cmp	r3, #0
 8000b08:	d001      	beq.n	8000b0e <MqttClient_HandlePayload+0x2aa>
                p_subscribe_ack = (MqttSubscribeAck*)p_decode;
 8000b0a:	683b      	ldr	r3, [r7, #0]
 8000b0c:	62fb      	str	r3, [r7, #44]	; 0x2c
            }
            rc = MqttDecode_SubscribeAck(client->rx_buf, client->packet.buf_len,
 8000b0e:	68fb      	ldr	r3, [r7, #12]
 8000b10:	6918      	ldr	r0, [r3, #16]
 8000b12:	68fb      	ldr	r3, [r7, #12]
 8000b14:	6a9b      	ldr	r3, [r3, #40]	; 0x28
 8000b16:	6afa      	ldr	r2, [r7, #44]	; 0x2c
 8000b18:	4619      	mov	r1, r3
 8000b1a:	f000 fe63 	bl	80017e4 <MqttDecode_SubscribeAck>
 8000b1e:	63f8      	str	r0, [r7, #60]	; 0x3c
                p_subscribe_ack);
            if (rc <= 0) {
 8000b20:	6bfb      	ldr	r3, [r7, #60]	; 0x3c
 8000b22:	2b00      	cmp	r3, #0
 8000b24:	dc01      	bgt.n	8000b2a <MqttClient_HandlePayload+0x2c6>
                return rc;
 8000b26:	6bfb      	ldr	r3, [r7, #60]	; 0x3c
 8000b28:	e02f      	b.n	8000b8a <MqttClient_HandlePayload+0x326>
            }
            *packet_id = p_subscribe_ack->packet_id;
 8000b2a:	6afb      	ldr	r3, [r7, #44]	; 0x2c
 8000b2c:	881a      	ldrh	r2, [r3, #0]
 8000b2e:	6d3b      	ldr	r3, [r7, #80]	; 0x50
 8000b30:	801a      	strh	r2, [r3, #0]
 8000b32:	e029      	b.n	8000b88 <MqttClient_HandlePayload+0x324>
        }
        case MQTT_PACKET_TYPE_UNSUBSCRIBE_ACK:
        {
            /* Decode unsubscribe ack */
            MqttUnsubscribeAck unsubscribe_ack;
            MqttUnsubscribeAck *p_unsubscribe_ack = &unsubscribe_ack;
 8000b34:	f107 0310 	add.w	r3, r7, #16
 8000b38:	62bb      	str	r3, [r7, #40]	; 0x28

            if (p_decode) {
 8000b3a:	683b      	ldr	r3, [r7, #0]
 8000b3c:	2b00      	cmp	r3, #0
 8000b3e:	d001      	beq.n	8000b44 <MqttClient_HandlePayload+0x2e0>
                p_unsubscribe_ack = (MqttUnsubscribeAck*)p_decode;
 8000b40:	683b      	ldr	r3, [r7, #0]
 8000b42:	62bb      	str	r3, [r7, #40]	; 0x28
            }
            rc = MqttDecode_UnsubscribeAck(client->rx_buf, client->packet.buf_len,
 8000b44:	68fb      	ldr	r3, [r7, #12]
 8000b46:	6918      	ldr	r0, [r3, #16]
 8000b48:	68fb      	ldr	r3, [r7, #12]
 8000b4a:	6a9b      	ldr	r3, [r3, #40]	; 0x28
 8000b4c:	6aba      	ldr	r2, [r7, #40]	; 0x28
 8000b4e:	4619      	mov	r1, r3
 8000b50:	f000 fe88 	bl	8001864 <MqttDecode_UnsubscribeAck>
 8000b54:	63f8      	str	r0, [r7, #60]	; 0x3c
                p_unsubscribe_ack);
            if (rc <= 0) {
 8000b56:	6bfb      	ldr	r3, [r7, #60]	; 0x3c
 8000b58:	2b00      	cmp	r3, #0
 8000b5a:	dc01      	bgt.n	8000b60 <MqttClient_HandlePayload+0x2fc>
                return rc;
 8000b5c:	6bfb      	ldr	r3, [r7, #60]	; 0x3c
 8000b5e:	e014      	b.n	8000b8a <MqttClient_HandlePayload+0x326>
            }
            *packet_id = p_unsubscribe_ack->packet_id;
 8000b60:	6abb      	ldr	r3, [r7, #40]	; 0x28
 8000b62:	881a      	ldrh	r2, [r3, #0]
 8000b64:	6d3b      	ldr	r3, [r7, #80]	; 0x50
 8000b66:	801a      	strh	r2, [r3, #0]
 8000b68:	e00e      	b.n	8000b88 <MqttClient_HandlePayload+0x324>
            break;
        }
        case MQTT_PACKET_TYPE_PING_RESP:
        {
            /* Decode ping */
            rc = MqttDecode_Ping(client->rx_buf, client->packet.buf_len);
 8000b6a:	68fb      	ldr	r3, [r7, #12]
 8000b6c:	691a      	ldr	r2, [r3, #16]
 8000b6e:	68fb      	ldr	r3, [r7, #12]
 8000b70:	6a9b      	ldr	r3, [r3, #40]	; 0x28
 8000b72:	4619      	mov	r1, r3
 8000b74:	4610      	mov	r0, r2
 8000b76:	f000 feb2 	bl	80018de <MqttDecode_Ping>
 8000b7a:	63f8      	str	r0, [r7, #60]	; 0x3c
            break;
 8000b7c:	e004      	b.n	8000b88 <MqttClient_HandlePayload+0x324>
            /* Other types are server side only, ignore */
        #ifdef WOLFMQTT_DEBUG_CLIENT
            PRINTF("MqttClient_WaitMessage: Invalid client packet type %u!",
                msg->type);
        #endif
            break;
 8000b7e:	bf00      	nop
 8000b80:	e002      	b.n	8000b88 <MqttClient_HandlePayload+0x324>
            break;
 8000b82:	bf00      	nop
 8000b84:	e000      	b.n	8000b88 <MqttClient_HandlePayload+0x324>
            break;
 8000b86:	bf00      	nop
        }
    } /* switch (msg->type) */

    return rc;
 8000b88:	6bfb      	ldr	r3, [r7, #60]	; 0x3c
}
 8000b8a:	4618      	mov	r0, r3
 8000b8c:	3744      	adds	r7, #68	; 0x44
 8000b8e:	46bd      	mov	sp, r7
 8000b90:	bd90      	pop	{r4, r7, pc}
 8000b92:	bf00      	nop

08000b94 <MqttClient_WaitType>:

static int MqttClient_WaitType(MqttClient *client, MqttMessage* msg,
    int timeout_ms, byte wait_type, word16 wait_packet_id, void* p_decode)
{
 8000b94:	b580      	push	{r7, lr}
 8000b96:	b08a      	sub	sp, #40	; 0x28
 8000b98:	af02      	add	r7, sp, #8
 8000b9a:	60f8      	str	r0, [r7, #12]
 8000b9c:	60b9      	str	r1, [r7, #8]
 8000b9e:	607a      	str	r2, [r7, #4]
 8000ba0:	70fb      	strb	r3, [r7, #3]
    int rc;
    word16 packet_id = 0;
 8000ba2:	2300      	movs	r3, #0
 8000ba4:	82fb      	strh	r3, [r7, #22]

wait_again:

    switch (msg->stat)
 8000ba6:	68bb      	ldr	r3, [r7, #8]
 8000ba8:	781b      	ldrb	r3, [r3, #0]
 8000baa:	2b04      	cmp	r3, #4
 8000bac:	d85e      	bhi.n	8000c6c <MqttClient_WaitType+0xd8>
 8000bae:	a201      	add	r2, pc, #4	; (adr r2, 8000bb4 <MqttClient_WaitType+0x20>)
 8000bb0:	f852 f023 	ldr.w	pc, [r2, r3, lsl #2]
 8000bb4:	08000bc9 	.word	0x08000bc9
 8000bb8:	08000bcf 	.word	0x08000bcf
 8000bbc:	08000c6d 	.word	0x08000c6d
 8000bc0:	08000c25 	.word	0x08000c25
 8000bc4:	08000c25 	.word	0x08000c25
    {
        case MQTT_MSG_BEGIN:
        {
            /* reset the packet state */
            client->packet.stat = MQTT_PK_BEGIN;
 8000bc8:	68fb      	ldr	r3, [r7, #12]
 8000bca:	2200      	movs	r2, #0
 8000bcc:	771a      	strb	r2, [r3, #28]
        case MQTT_MSG_WAIT:
        {
            MqttPacket* header;

            /* Wait for packet */
            rc = MqttPacket_Read(client, client->rx_buf, client->rx_buf_len, timeout_ms);
 8000bce:	68fb      	ldr	r3, [r7, #12]
 8000bd0:	6919      	ldr	r1, [r3, #16]
 8000bd2:	68fb      	ldr	r3, [r7, #12]
 8000bd4:	695a      	ldr	r2, [r3, #20]
 8000bd6:	687b      	ldr	r3, [r7, #4]
 8000bd8:	68f8      	ldr	r0, [r7, #12]
 8000bda:	f000 febb 	bl	8001954 <MqttPacket_Read>
 8000bde:	61f8      	str	r0, [r7, #28]
            if (rc <= 0) {
 8000be0:	69fb      	ldr	r3, [r7, #28]
 8000be2:	2b00      	cmp	r3, #0
 8000be4:	dc01      	bgt.n	8000bea <MqttClient_WaitType+0x56>
                return rc;
 8000be6:	69fb      	ldr	r3, [r7, #28]
 8000be8:	e049      	b.n	8000c7e <MqttClient_WaitType+0xea>
            }

            msg->stat = MQTT_MSG_WAIT;
 8000bea:	68bb      	ldr	r3, [r7, #8]
 8000bec:	2201      	movs	r2, #1
 8000bee:	701a      	strb	r2, [r3, #0]
            client->packet.buf_len = rc;
 8000bf0:	68fb      	ldr	r3, [r7, #12]
 8000bf2:	69fa      	ldr	r2, [r7, #28]
 8000bf4:	629a      	str	r2, [r3, #40]	; 0x28

            /* Determine packet type */
            header = (MqttPacket*)client->rx_buf;
 8000bf6:	68fb      	ldr	r3, [r7, #12]
 8000bf8:	691b      	ldr	r3, [r3, #16]
 8000bfa:	61bb      	str	r3, [r7, #24]
            msg->type = MQTT_PACKET_TYPE_GET(header->type_flags);
 8000bfc:	69bb      	ldr	r3, [r7, #24]
 8000bfe:	781b      	ldrb	r3, [r3, #0]
 8000c00:	091b      	lsrs	r3, r3, #4
 8000c02:	b2da      	uxtb	r2, r3
 8000c04:	68bb      	ldr	r3, [r7, #8]
 8000c06:	711a      	strb	r2, [r3, #4]
            msg->qos = (MqttQoS)MQTT_PACKET_FLAGS_GET_QOS(header->type_flags);
 8000c08:	69bb      	ldr	r3, [r7, #24]
 8000c0a:	781b      	ldrb	r3, [r3, #0]
 8000c0c:	105b      	asrs	r3, r3, #1
 8000c0e:	f003 0303 	and.w	r3, r3, #3
 8000c12:	b2da      	uxtb	r2, r3
 8000c14:	68bb      	ldr	r3, [r7, #8]
 8000c16:	715a      	strb	r2, [r3, #5]
            msg->buffer_new = 1;
 8000c18:	68bb      	ldr	r3, [r7, #8]
 8000c1a:	2201      	movs	r2, #1
 8000c1c:	761a      	strb	r2, [r3, #24]
        #ifdef WOLFMQTT_DEBUG_CLIENT
            PRINTF("Read Packet: Len %d, Type %d, Qos %d",
                client->packet.buf_len, msg->type, msg->qos);
        #endif

            msg->stat = MQTT_MSG_READ;
 8000c1e:	68bb      	ldr	r3, [r7, #8]
 8000c20:	2203      	movs	r2, #3
 8000c22:	701a      	strb	r2, [r3, #0]
        }

        case MQTT_MSG_READ:
        case MQTT_MSG_READ_PAYLOAD:
        {
            rc = MqttClient_HandlePayload(client, msg, timeout_ms, p_decode,
 8000c24:	f107 0316 	add.w	r3, r7, #22
 8000c28:	9300      	str	r3, [sp, #0]
 8000c2a:	6afb      	ldr	r3, [r7, #44]	; 0x2c
 8000c2c:	687a      	ldr	r2, [r7, #4]
 8000c2e:	68b9      	ldr	r1, [r7, #8]
 8000c30:	68f8      	ldr	r0, [r7, #12]
 8000c32:	f7ff fe17 	bl	8000864 <MqttClient_HandlePayload>
 8000c36:	61f8      	str	r0, [r7, #28]
                                                                &packet_id);
            if (rc < 0) {
 8000c38:	69fb      	ldr	r3, [r7, #28]
 8000c3a:	2b00      	cmp	r3, #0
 8000c3c:	da01      	bge.n	8000c42 <MqttClient_WaitType+0xae>
                return rc;
 8000c3e:	69fb      	ldr	r3, [r7, #28]
 8000c40:	e01d      	b.n	8000c7e <MqttClient_WaitType+0xea>
            }
            rc = MQTT_CODE_SUCCESS;
 8000c42:	2300      	movs	r3, #0
 8000c44:	61fb      	str	r3, [r7, #28]

            /* Check for type and packet id */
            if (wait_type < MQTT_PACKET_TYPE_MAX) {
 8000c46:	78fb      	ldrb	r3, [r7, #3]
 8000c48:	2b0e      	cmp	r3, #14
 8000c4a:	d813      	bhi.n	8000c74 <MqttClient_WaitType+0xe0>
                if (wait_type == msg->type) {
 8000c4c:	68bb      	ldr	r3, [r7, #8]
 8000c4e:	791b      	ldrb	r3, [r3, #4]
 8000c50:	78fa      	ldrb	r2, [r7, #3]
 8000c52:	429a      	cmp	r2, r3
 8000c54:	d106      	bne.n	8000c64 <MqttClient_WaitType+0xd0>
                    if (wait_packet_id == 0 || wait_packet_id == packet_id) {
 8000c56:	8d3b      	ldrh	r3, [r7, #40]	; 0x28
 8000c58:	2b00      	cmp	r3, #0
 8000c5a:	d00c      	beq.n	8000c76 <MqttClient_WaitType+0xe2>
 8000c5c:	8afb      	ldrh	r3, [r7, #22]
 8000c5e:	8d3a      	ldrh	r2, [r7, #40]	; 0x28
 8000c60:	429a      	cmp	r2, r3
 8000c62:	d008      	beq.n	8000c76 <MqttClient_WaitType+0xe2>
                        /* We found the packet type and id */
                        break;
                    }
                }

                msg->stat = MQTT_MSG_BEGIN;
 8000c64:	68bb      	ldr	r3, [r7, #8]
 8000c66:	2200      	movs	r2, #0
 8000c68:	701a      	strb	r2, [r3, #0]
                goto wait_again;
 8000c6a:	e79c      	b.n	8000ba6 <MqttClient_WaitType+0x12>
        {
        #ifdef WOLFMQTT_DEBUG_CLIENT
            PRINTF("MqttClient_WaitType: Invalid state %d!",
                msg->stat);
        #endif
            rc = MQTT_CODE_ERROR_STAT;
 8000c6c:	f06f 0309 	mvn.w	r3, #9
 8000c70:	61fb      	str	r3, [r7, #28]
            break;
 8000c72:	e000      	b.n	8000c76 <MqttClient_WaitType+0xe2>
            break;
 8000c74:	bf00      	nop
        }
    } /* switch (msg->stat) */

    /* reset state */
    msg->stat = MQTT_MSG_BEGIN;
 8000c76:	68bb      	ldr	r3, [r7, #8]
 8000c78:	2200      	movs	r2, #0
 8000c7a:	701a      	strb	r2, [r3, #0]

    return rc;
 8000c7c:	69fb      	ldr	r3, [r7, #28]
}
 8000c7e:	4618      	mov	r0, r3
 8000c80:	3720      	adds	r7, #32
 8000c82:	46bd      	mov	sp, r7
 8000c84:	bd80      	pop	{r7, pc}
 8000c86:	bf00      	nop

08000c88 <MqttClient_Init>:
int MqttClient_Init(MqttClient *client, MqttNet* net,
    MqttMsgCb msg_cb,
    byte* tx_buf, int tx_buf_len,
    byte* rx_buf, int rx_buf_len,
    int cmd_timeout_ms)
{
 8000c88:	b580      	push	{r7, lr}
 8000c8a:	b086      	sub	sp, #24
 8000c8c:	af00      	add	r7, sp, #0
 8000c8e:	60f8      	str	r0, [r7, #12]
 8000c90:	60b9      	str	r1, [r7, #8]
 8000c92:	607a      	str	r2, [r7, #4]
 8000c94:	603b      	str	r3, [r7, #0]
    int rc = MQTT_CODE_SUCCESS;
 8000c96:	2300      	movs	r3, #0
 8000c98:	617b      	str	r3, [r7, #20]

    /* Check arguments */
    if (client == NULL ||
 8000c9a:	68fb      	ldr	r3, [r7, #12]
 8000c9c:	2b00      	cmp	r3, #0
 8000c9e:	d00b      	beq.n	8000cb8 <MqttClient_Init+0x30>
 8000ca0:	683b      	ldr	r3, [r7, #0]
 8000ca2:	2b00      	cmp	r3, #0
 8000ca4:	d008      	beq.n	8000cb8 <MqttClient_Init+0x30>
        tx_buf == NULL || tx_buf_len <= 0 ||
 8000ca6:	6a3b      	ldr	r3, [r7, #32]
 8000ca8:	2b00      	cmp	r3, #0
 8000caa:	dd05      	ble.n	8000cb8 <MqttClient_Init+0x30>
 8000cac:	6a7b      	ldr	r3, [r7, #36]	; 0x24
 8000cae:	2b00      	cmp	r3, #0
 8000cb0:	d002      	beq.n	8000cb8 <MqttClient_Init+0x30>
        rx_buf == NULL || rx_buf_len <= 0) {
 8000cb2:	6abb      	ldr	r3, [r7, #40]	; 0x28
 8000cb4:	2b00      	cmp	r3, #0
 8000cb6:	dc02      	bgt.n	8000cbe <MqttClient_Init+0x36>
        return MQTT_CODE_ERROR_BAD_ARG;
 8000cb8:	f04f 33ff 	mov.w	r3, #4294967295	; 0xffffffff
 8000cbc:	e01c      	b.n	8000cf8 <MqttClient_Init+0x70>
    }

    /* Initialize the client structure to zero */
    XMEMSET(client, 0, sizeof(MqttClient));
 8000cbe:	226c      	movs	r2, #108	; 0x6c
 8000cc0:	2100      	movs	r1, #0
 8000cc2:	68f8      	ldr	r0, [r7, #12]
 8000cc4:	f001 fdf7 	bl	80028b6 <memset>

    /* Setup client structure */
    client->msg_cb = msg_cb;
 8000cc8:	68fb      	ldr	r3, [r7, #12]
 8000cca:	687a      	ldr	r2, [r7, #4]
 8000ccc:	63da      	str	r2, [r3, #60]	; 0x3c
    client->tx_buf = tx_buf;
 8000cce:	68fb      	ldr	r3, [r7, #12]
 8000cd0:	683a      	ldr	r2, [r7, #0]
 8000cd2:	609a      	str	r2, [r3, #8]
    client->tx_buf_len = tx_buf_len;
 8000cd4:	68fb      	ldr	r3, [r7, #12]
 8000cd6:	6a3a      	ldr	r2, [r7, #32]
 8000cd8:	60da      	str	r2, [r3, #12]
    client->rx_buf = rx_buf;
 8000cda:	68fb      	ldr	r3, [r7, #12]
 8000cdc:	6a7a      	ldr	r2, [r7, #36]	; 0x24
 8000cde:	611a      	str	r2, [r3, #16]
    client->rx_buf_len = rx_buf_len;
 8000ce0:	68fb      	ldr	r3, [r7, #12]
 8000ce2:	6aba      	ldr	r2, [r7, #40]	; 0x28
 8000ce4:	615a      	str	r2, [r3, #20]
    client->cmd_timeout_ms = cmd_timeout_ms;
 8000ce6:	68fb      	ldr	r3, [r7, #12]
 8000ce8:	6afa      	ldr	r2, [r7, #44]	; 0x2c
 8000cea:	605a      	str	r2, [r3, #4]

    /* Init socket */
    rc = MqttSocket_Init(client, net);
 8000cec:	68b9      	ldr	r1, [r7, #8]
 8000cee:	68f8      	ldr	r0, [r7, #12]
 8000cf0:	f000 fecd 	bl	8001a8e <MqttSocket_Init>
 8000cf4:	6178      	str	r0, [r7, #20]

    return rc;
 8000cf6:	697b      	ldr	r3, [r7, #20]
}
 8000cf8:	4618      	mov	r0, r3
 8000cfa:	3718      	adds	r7, #24
 8000cfc:	46bd      	mov	sp, r7
 8000cfe:	bd80      	pop	{r7, pc}

08000d00 <MqttClient_Connect>:

int MqttClient_Connect(MqttClient *client, MqttConnect *connect)
{
 8000d00:	b580      	push	{r7, lr}
 8000d02:	b086      	sub	sp, #24
 8000d04:	af02      	add	r7, sp, #8
 8000d06:	6078      	str	r0, [r7, #4]
 8000d08:	6039      	str	r1, [r7, #0]
    int rc, len;

    /* Validate required arguments */
    if (client == NULL || connect == NULL) {
 8000d0a:	687b      	ldr	r3, [r7, #4]
 8000d0c:	2b00      	cmp	r3, #0
 8000d0e:	d002      	beq.n	8000d16 <MqttClient_Connect+0x16>
 8000d10:	683b      	ldr	r3, [r7, #0]
 8000d12:	2b00      	cmp	r3, #0
 8000d14:	d102      	bne.n	8000d1c <MqttClient_Connect+0x1c>
        return MQTT_CODE_ERROR_BAD_ARG;
 8000d16:	f04f 33ff 	mov.w	r3, #4294967295	; 0xffffffff
 8000d1a:	e034      	b.n	8000d86 <MqttClient_Connect+0x86>
    }

    if (connect->stat == MQTT_MSG_BEGIN) {
 8000d1c:	683b      	ldr	r3, [r7, #0]
 8000d1e:	781b      	ldrb	r3, [r3, #0]
 8000d20:	2b00      	cmp	r3, #0
 8000d22:	d120      	bne.n	8000d66 <MqttClient_Connect+0x66>

        /* Encode the connect packet */
        rc = MqttEncode_Connect(client->tx_buf, client->tx_buf_len, connect);
 8000d24:	687b      	ldr	r3, [r7, #4]
 8000d26:	6898      	ldr	r0, [r3, #8]
 8000d28:	687b      	ldr	r3, [r7, #4]
 8000d2a:	68db      	ldr	r3, [r3, #12]
 8000d2c:	683a      	ldr	r2, [r7, #0]
 8000d2e:	4619      	mov	r1, r3
 8000d30:	f000 f9ea 	bl	8001108 <MqttEncode_Connect>
 8000d34:	60f8      	str	r0, [r7, #12]
        if (rc <= 0) {
 8000d36:	68fb      	ldr	r3, [r7, #12]
 8000d38:	2b00      	cmp	r3, #0
 8000d3a:	dc01      	bgt.n	8000d40 <MqttClient_Connect+0x40>
            return rc;
 8000d3c:	68fb      	ldr	r3, [r7, #12]
 8000d3e:	e022      	b.n	8000d86 <MqttClient_Connect+0x86>
        }
        len = rc;
 8000d40:	68fb      	ldr	r3, [r7, #12]
 8000d42:	60bb      	str	r3, [r7, #8]

        /* Send connect packet */
        rc = MqttPacket_Write(client, client->tx_buf, len);
 8000d44:	687b      	ldr	r3, [r7, #4]
 8000d46:	689b      	ldr	r3, [r3, #8]
 8000d48:	68ba      	ldr	r2, [r7, #8]
 8000d4a:	4619      	mov	r1, r3
 8000d4c:	6878      	ldr	r0, [r7, #4]
 8000d4e:	f000 fdee 	bl	800192e <MqttPacket_Write>
 8000d52:	60f8      	str	r0, [r7, #12]
        if (rc != len) {
 8000d54:	68fa      	ldr	r2, [r7, #12]
 8000d56:	68bb      	ldr	r3, [r7, #8]
 8000d58:	429a      	cmp	r2, r3
 8000d5a:	d001      	beq.n	8000d60 <MqttClient_Connect+0x60>
            return rc;
 8000d5c:	68fb      	ldr	r3, [r7, #12]
 8000d5e:	e012      	b.n	8000d86 <MqttClient_Connect+0x86>
        }
        connect->stat = MQTT_MSG_WAIT;
 8000d60:	683b      	ldr	r3, [r7, #0]
 8000d62:	2201      	movs	r2, #1
 8000d64:	701a      	strb	r2, [r3, #0]
	broker_decode_connect(&broker, local_host.data, &stat);
	broker_send_conn_ack(&broker, &stat);
*/

    /* Wait for connect ack packet */
    rc = MqttClient_WaitType(client, &client->msg, client->cmd_timeout_ms,
 8000d66:	687b      	ldr	r3, [r7, #4]
 8000d68:	f103 0140 	add.w	r1, r3, #64	; 0x40
 8000d6c:	687b      	ldr	r3, [r7, #4]
 8000d6e:	685a      	ldr	r2, [r3, #4]
        MQTT_PACKET_TYPE_CONNECT_ACK, 0, &connect->ack);
 8000d70:	683b      	ldr	r3, [r7, #0]
 8000d72:	331c      	adds	r3, #28
    rc = MqttClient_WaitType(client, &client->msg, client->cmd_timeout_ms,
 8000d74:	9301      	str	r3, [sp, #4]
 8000d76:	2300      	movs	r3, #0
 8000d78:	9300      	str	r3, [sp, #0]
 8000d7a:	2302      	movs	r3, #2
 8000d7c:	6878      	ldr	r0, [r7, #4]
 8000d7e:	f7ff ff09 	bl	8000b94 <MqttClient_WaitType>
 8000d82:	60f8      	str	r0, [r7, #12]

    return rc;
 8000d84:	68fb      	ldr	r3, [r7, #12]
}
 8000d86:	4618      	mov	r0, r3
 8000d88:	3710      	adds	r7, #16
 8000d8a:	46bd      	mov	sp, r7
 8000d8c:	bd80      	pop	{r7, pc}

08000d8e <MqttEncode_FixedHeader>:
#include "mqtt_client.h"

/* Positive return value is header length, zero or negative indicates error */
static int MqttEncode_FixedHeader(byte *tx_buf, int tx_buf_len, int remain_len,
    byte type, byte retain, byte qos, byte duplicate)
{
 8000d8e:	b580      	push	{r7, lr}
 8000d90:	b086      	sub	sp, #24
 8000d92:	af00      	add	r7, sp, #0
 8000d94:	60f8      	str	r0, [r7, #12]
 8000d96:	60b9      	str	r1, [r7, #8]
 8000d98:	607a      	str	r2, [r7, #4]
 8000d9a:	70fb      	strb	r3, [r7, #3]
    int header_len;
    MqttPacket* header = (MqttPacket*)tx_buf;
 8000d9c:	68fb      	ldr	r3, [r7, #12]
 8000d9e:	617b      	str	r3, [r7, #20]

    /* Encode fixed header */
    header->type_flags = MQTT_PACKET_TYPE_SET(type) | MQTT_PACKET_FLAGS_SET(0);
 8000da0:	78fb      	ldrb	r3, [r7, #3]
 8000da2:	011b      	lsls	r3, r3, #4
 8000da4:	b2da      	uxtb	r2, r3
 8000da6:	697b      	ldr	r3, [r7, #20]
 8000da8:	701a      	strb	r2, [r3, #0]
    if (retain) {
 8000daa:	f897 3020 	ldrb.w	r3, [r7, #32]
 8000dae:	2b00      	cmp	r3, #0
 8000db0:	d006      	beq.n	8000dc0 <MqttEncode_FixedHeader+0x32>
        header->type_flags |= MQTT_PACKET_FLAGS_SET(MQTT_PACKET_FLAG_RETAIN);
 8000db2:	697b      	ldr	r3, [r7, #20]
 8000db4:	781b      	ldrb	r3, [r3, #0]
 8000db6:	f043 0301 	orr.w	r3, r3, #1
 8000dba:	b2da      	uxtb	r2, r3
 8000dbc:	697b      	ldr	r3, [r7, #20]
 8000dbe:	701a      	strb	r2, [r3, #0]
    }
    if (qos) {
 8000dc0:	f897 3024 	ldrb.w	r3, [r7, #36]	; 0x24
 8000dc4:	2b00      	cmp	r3, #0
 8000dc6:	d00e      	beq.n	8000de6 <MqttEncode_FixedHeader+0x58>
        header->type_flags |= MQTT_PACKET_FLAGS_SET_QOS(qos);
 8000dc8:	697b      	ldr	r3, [r7, #20]
 8000dca:	781b      	ldrb	r3, [r3, #0]
 8000dcc:	b25a      	sxtb	r2, r3
 8000dce:	f897 3024 	ldrb.w	r3, [r7, #36]	; 0x24
 8000dd2:	005b      	lsls	r3, r3, #1
 8000dd4:	b25b      	sxtb	r3, r3
 8000dd6:	f003 0306 	and.w	r3, r3, #6
 8000dda:	b25b      	sxtb	r3, r3
 8000ddc:	4313      	orrs	r3, r2
 8000dde:	b25b      	sxtb	r3, r3
 8000de0:	b2da      	uxtb	r2, r3
 8000de2:	697b      	ldr	r3, [r7, #20]
 8000de4:	701a      	strb	r2, [r3, #0]
    }
    if (duplicate) {
 8000de6:	f897 3028 	ldrb.w	r3, [r7, #40]	; 0x28
 8000dea:	2b00      	cmp	r3, #0
 8000dec:	d006      	beq.n	8000dfc <MqttEncode_FixedHeader+0x6e>
        header->type_flags |=
 8000dee:	697b      	ldr	r3, [r7, #20]
 8000df0:	781b      	ldrb	r3, [r3, #0]
 8000df2:	f043 0308 	orr.w	r3, r3, #8
 8000df6:	b2da      	uxtb	r2, r3
 8000df8:	697b      	ldr	r3, [r7, #20]
 8000dfa:	701a      	strb	r2, [r3, #0]
            MQTT_PACKET_FLAGS_SET(MQTT_PACKET_FLAG_DUPLICATE);
    }

    /* Encode the length remaining into the header */
    header_len = MqttEncode_RemainLen(header, tx_buf_len, remain_len);
 8000dfc:	687a      	ldr	r2, [r7, #4]
 8000dfe:	68b9      	ldr	r1, [r7, #8]
 8000e00:	6978      	ldr	r0, [r7, #20]
 8000e02:	f000 f89f 	bl	8000f44 <MqttEncode_RemainLen>
 8000e06:	6138      	str	r0, [r7, #16]
    if (header_len < 0) {
 8000e08:	693b      	ldr	r3, [r7, #16]
 8000e0a:	2b00      	cmp	r3, #0
 8000e0c:	da01      	bge.n	8000e12 <MqttEncode_FixedHeader+0x84>
        return header_len;
 8000e0e:	693b      	ldr	r3, [r7, #16]
 8000e10:	e000      	b.n	8000e14 <MqttEncode_FixedHeader+0x86>
    }

    return header_len;
 8000e12:	693b      	ldr	r3, [r7, #16]
}
 8000e14:	4618      	mov	r0, r3
 8000e16:	3718      	adds	r7, #24
 8000e18:	46bd      	mov	sp, r7
 8000e1a:	bd80      	pop	{r7, pc}

08000e1c <MqttDecode_FixedHeader>:

static int MqttDecode_FixedHeader(byte *rx_buf, int rx_buf_len,
    int *remain_len, byte type, MqttQoS *p_qos, byte *p_retain,
    byte *p_duplicate)
{
 8000e1c:	b580      	push	{r7, lr}
 8000e1e:	b086      	sub	sp, #24
 8000e20:	af00      	add	r7, sp, #0
 8000e22:	60f8      	str	r0, [r7, #12]
 8000e24:	60b9      	str	r1, [r7, #8]
 8000e26:	607a      	str	r2, [r7, #4]
 8000e28:	70fb      	strb	r3, [r7, #3]
    int header_len;
    MqttPacket* header = (MqttPacket*)rx_buf;
 8000e2a:	68fb      	ldr	r3, [r7, #12]
 8000e2c:	617b      	str	r3, [r7, #20]

    /* Decode the length remaining */
    header_len = MqttDecode_RemainLen(header, rx_buf_len, remain_len);
 8000e2e:	687a      	ldr	r2, [r7, #4]
 8000e30:	68b9      	ldr	r1, [r7, #8]
 8000e32:	6978      	ldr	r0, [r7, #20]
 8000e34:	f000 f840 	bl	8000eb8 <MqttDecode_RemainLen>
 8000e38:	6138      	str	r0, [r7, #16]
    if (header_len < 0) {
 8000e3a:	693b      	ldr	r3, [r7, #16]
 8000e3c:	2b00      	cmp	r3, #0
 8000e3e:	da01      	bge.n	8000e44 <MqttDecode_FixedHeader+0x28>
        return header_len;
 8000e40:	693b      	ldr	r3, [r7, #16]
 8000e42:	e035      	b.n	8000eb0 <MqttDecode_FixedHeader+0x94>
    }

    /* Validate packet type */
    if (MQTT_PACKET_TYPE_GET(header->type_flags) != type) {
 8000e44:	697b      	ldr	r3, [r7, #20]
 8000e46:	781b      	ldrb	r3, [r3, #0]
 8000e48:	091b      	lsrs	r3, r3, #4
 8000e4a:	b2db      	uxtb	r3, r3
 8000e4c:	f003 020f 	and.w	r2, r3, #15
 8000e50:	78fb      	ldrb	r3, [r7, #3]
 8000e52:	429a      	cmp	r2, r3
 8000e54:	d002      	beq.n	8000e5c <MqttDecode_FixedHeader+0x40>
        return MQTT_CODE_ERROR_PACKET_TYPE;
 8000e56:	f06f 0303 	mvn.w	r3, #3
 8000e5a:	e029      	b.n	8000eb0 <MqttDecode_FixedHeader+0x94>
    }

    /* Extract header flags */
    if (p_qos) {
 8000e5c:	6a3b      	ldr	r3, [r7, #32]
 8000e5e:	2b00      	cmp	r3, #0
 8000e60:	d007      	beq.n	8000e72 <MqttDecode_FixedHeader+0x56>
        *p_qos = (MqttQoS)MQTT_PACKET_FLAGS_GET_QOS(header->type_flags);
 8000e62:	697b      	ldr	r3, [r7, #20]
 8000e64:	781b      	ldrb	r3, [r3, #0]
 8000e66:	105b      	asrs	r3, r3, #1
 8000e68:	f003 0303 	and.w	r3, r3, #3
 8000e6c:	b2da      	uxtb	r2, r3
 8000e6e:	6a3b      	ldr	r3, [r7, #32]
 8000e70:	701a      	strb	r2, [r3, #0]
    }
    if (p_retain) {
 8000e72:	6a7b      	ldr	r3, [r7, #36]	; 0x24
 8000e74:	2b00      	cmp	r3, #0
 8000e76:	d00b      	beq.n	8000e90 <MqttDecode_FixedHeader+0x74>
        *p_retain = (MQTT_PACKET_FLAGS_GET(header->type_flags) &
 8000e78:	697b      	ldr	r3, [r7, #20]
 8000e7a:	781b      	ldrb	r3, [r3, #0]
 8000e7c:	f003 0301 	and.w	r3, r3, #1
            MQTT_PACKET_FLAG_RETAIN) ? 1 : 0;
 8000e80:	2b00      	cmp	r3, #0
 8000e82:	bf14      	ite	ne
 8000e84:	2301      	movne	r3, #1
 8000e86:	2300      	moveq	r3, #0
 8000e88:	b2db      	uxtb	r3, r3
 8000e8a:	461a      	mov	r2, r3
        *p_retain = (MQTT_PACKET_FLAGS_GET(header->type_flags) &
 8000e8c:	6a7b      	ldr	r3, [r7, #36]	; 0x24
 8000e8e:	701a      	strb	r2, [r3, #0]
    }
    if (p_duplicate) {
 8000e90:	6abb      	ldr	r3, [r7, #40]	; 0x28
 8000e92:	2b00      	cmp	r3, #0
 8000e94:	d00b      	beq.n	8000eae <MqttDecode_FixedHeader+0x92>
        *p_duplicate = (MQTT_PACKET_FLAGS_GET(header->type_flags) &
 8000e96:	697b      	ldr	r3, [r7, #20]
 8000e98:	781b      	ldrb	r3, [r3, #0]
 8000e9a:	f003 0308 	and.w	r3, r3, #8
            MQTT_PACKET_FLAG_DUPLICATE) ? 1 : 0;
 8000e9e:	2b00      	cmp	r3, #0
 8000ea0:	bf14      	ite	ne
 8000ea2:	2301      	movne	r3, #1
 8000ea4:	2300      	moveq	r3, #0
 8000ea6:	b2db      	uxtb	r3, r3
 8000ea8:	461a      	mov	r2, r3
        *p_duplicate = (MQTT_PACKET_FLAGS_GET(header->type_flags) &
 8000eaa:	6abb      	ldr	r3, [r7, #40]	; 0x28
 8000eac:	701a      	strb	r2, [r3, #0]
    }

    return header_len;
 8000eae:	693b      	ldr	r3, [r7, #16]
}
 8000eb0:	4618      	mov	r0, r3
 8000eb2:	3718      	adds	r7, #24
 8000eb4:	46bd      	mov	sp, r7
 8000eb6:	bd80      	pop	{r7, pc}

08000eb8 <MqttDecode_RemainLen>:


/* Packet Element Encoders/Decoders */
/* Returns number of decoded bytes, errors are negative value */
int MqttDecode_RemainLen(MqttPacket *header, int buf_len, int *remain_len)
{
 8000eb8:	b480      	push	{r7}
 8000eba:	b089      	sub	sp, #36	; 0x24
 8000ebc:	af00      	add	r7, sp, #0
 8000ebe:	60f8      	str	r0, [r7, #12]
 8000ec0:	60b9      	str	r1, [r7, #8]
 8000ec2:	607a      	str	r2, [r7, #4]
    int decode_bytes = 0;
 8000ec4:	2300      	movs	r3, #0
 8000ec6:	61fb      	str	r3, [r7, #28]
    int multiplier = 1;
 8000ec8:	2301      	movs	r3, #1
 8000eca:	61bb      	str	r3, [r7, #24]
    byte tmp_len;

    if (header == NULL || remain_len == NULL || buf_len <= 0) {
 8000ecc:	68fb      	ldr	r3, [r7, #12]
 8000ece:	2b00      	cmp	r3, #0
 8000ed0:	d005      	beq.n	8000ede <MqttDecode_RemainLen+0x26>
 8000ed2:	687b      	ldr	r3, [r7, #4]
 8000ed4:	2b00      	cmp	r3, #0
 8000ed6:	d002      	beq.n	8000ede <MqttDecode_RemainLen+0x26>
 8000ed8:	68bb      	ldr	r3, [r7, #8]
 8000eda:	2b00      	cmp	r3, #0
 8000edc:	dc02      	bgt.n	8000ee4 <MqttDecode_RemainLen+0x2c>
        return MQTT_CODE_ERROR_BAD_ARG;
 8000ede:	f04f 33ff 	mov.w	r3, #4294967295	; 0xffffffff
 8000ee2:	e02a      	b.n	8000f3a <MqttDecode_RemainLen+0x82>
    }

    *remain_len = 0;
 8000ee4:	687b      	ldr	r3, [r7, #4]
 8000ee6:	2200      	movs	r2, #0
 8000ee8:	601a      	str	r2, [r3, #0]
    do {
        /* Check decoded length byte count */
        if ((decode_bytes + 1) >= buf_len) {
 8000eea:	69fb      	ldr	r3, [r7, #28]
 8000eec:	1c5a      	adds	r2, r3, #1
 8000eee:	68bb      	ldr	r3, [r7, #8]
 8000ef0:	429a      	cmp	r2, r3
 8000ef2:	db01      	blt.n	8000ef8 <MqttDecode_RemainLen+0x40>
            return 0; /* Zero incidates we need another byte */
 8000ef4:	2300      	movs	r3, #0
 8000ef6:	e020      	b.n	8000f3a <MqttDecode_RemainLen+0x82>
        }
        if (decode_bytes >= MQTT_PACKET_MAX_LEN_BYTES) {
 8000ef8:	69fb      	ldr	r3, [r7, #28]
 8000efa:	2b03      	cmp	r3, #3
 8000efc:	dd02      	ble.n	8000f04 <MqttDecode_RemainLen+0x4c>
            return MQTT_CODE_ERROR_MALFORMED_DATA;
 8000efe:	f06f 0302 	mvn.w	r3, #2
 8000f02:	e01a      	b.n	8000f3a <MqttDecode_RemainLen+0x82>
        }

        /* Decode Length */
        tmp_len = header->len[decode_bytes++];
 8000f04:	69fb      	ldr	r3, [r7, #28]
 8000f06:	1c5a      	adds	r2, r3, #1
 8000f08:	61fa      	str	r2, [r7, #28]
 8000f0a:	68fa      	ldr	r2, [r7, #12]
 8000f0c:	4413      	add	r3, r2
 8000f0e:	785b      	ldrb	r3, [r3, #1]
 8000f10:	75fb      	strb	r3, [r7, #23]
        *remain_len += (tmp_len & ~MQTT_PACKET_LEN_ENCODE_MASK) * multiplier;
 8000f12:	687b      	ldr	r3, [r7, #4]
 8000f14:	681a      	ldr	r2, [r3, #0]
 8000f16:	7dfb      	ldrb	r3, [r7, #23]
 8000f18:	f023 0380 	bic.w	r3, r3, #128	; 0x80
 8000f1c:	69b9      	ldr	r1, [r7, #24]
 8000f1e:	fb01 f303 	mul.w	r3, r1, r3
 8000f22:	441a      	add	r2, r3
 8000f24:	687b      	ldr	r3, [r7, #4]
 8000f26:	601a      	str	r2, [r3, #0]
        multiplier *= MQTT_PACKET_LEN_ENCODE_MASK;
 8000f28:	69bb      	ldr	r3, [r7, #24]
 8000f2a:	01db      	lsls	r3, r3, #7
 8000f2c:	61bb      	str	r3, [r7, #24]
    } while (tmp_len & MQTT_PACKET_LEN_ENCODE_MASK);
 8000f2e:	f997 3017 	ldrsb.w	r3, [r7, #23]
 8000f32:	2b00      	cmp	r3, #0
 8000f34:	dbd9      	blt.n	8000eea <MqttDecode_RemainLen+0x32>

    return decode_bytes + 1; /* Add byte for header flags/type */
 8000f36:	69fb      	ldr	r3, [r7, #28]
 8000f38:	3301      	adds	r3, #1
}
 8000f3a:	4618      	mov	r0, r3
 8000f3c:	3724      	adds	r7, #36	; 0x24
 8000f3e:	46bd      	mov	sp, r7
 8000f40:	bc80      	pop	{r7}
 8000f42:	4770      	bx	lr

08000f44 <MqttEncode_RemainLen>:

/* Returns number of encoded bytes, errors are negative value */
int MqttEncode_RemainLen(MqttPacket *header, int buf_len, int remain_len)
{
 8000f44:	b480      	push	{r7}
 8000f46:	b087      	sub	sp, #28
 8000f48:	af00      	add	r7, sp, #0
 8000f4a:	60f8      	str	r0, [r7, #12]
 8000f4c:	60b9      	str	r1, [r7, #8]
 8000f4e:	607a      	str	r2, [r7, #4]
    int encode_bytes = 0;
 8000f50:	2300      	movs	r3, #0
 8000f52:	617b      	str	r3, [r7, #20]
    byte tmp_len;

    if (header == NULL || remain_len < 0) {
 8000f54:	68fb      	ldr	r3, [r7, #12]
 8000f56:	2b00      	cmp	r3, #0
 8000f58:	d002      	beq.n	8000f60 <MqttEncode_RemainLen+0x1c>
 8000f5a:	687b      	ldr	r3, [r7, #4]
 8000f5c:	2b00      	cmp	r3, #0
 8000f5e:	da02      	bge.n	8000f66 <MqttEncode_RemainLen+0x22>
        return MQTT_CODE_ERROR_BAD_ARG;
 8000f60:	f04f 33ff 	mov.w	r3, #4294967295	; 0xffffffff
 8000f64:	e02e      	b.n	8000fc4 <MqttEncode_RemainLen+0x80>
    }

    do {
        /* Check decoded length byte count */
        if ((encode_bytes + 1) >= buf_len) {
 8000f66:	697b      	ldr	r3, [r7, #20]
 8000f68:	1c5a      	adds	r2, r3, #1
 8000f6a:	68bb      	ldr	r3, [r7, #8]
 8000f6c:	429a      	cmp	r2, r3
 8000f6e:	db01      	blt.n	8000f74 <MqttEncode_RemainLen+0x30>
            return 0; /* Zero incidates we need another byte */
 8000f70:	2300      	movs	r3, #0
 8000f72:	e027      	b.n	8000fc4 <MqttEncode_RemainLen+0x80>
        }
        if (encode_bytes >= MQTT_PACKET_MAX_LEN_BYTES) {
 8000f74:	697b      	ldr	r3, [r7, #20]
 8000f76:	2b03      	cmp	r3, #3
 8000f78:	dd02      	ble.n	8000f80 <MqttEncode_RemainLen+0x3c>
            return MQTT_CODE_ERROR_MALFORMED_DATA;
 8000f7a:	f06f 0302 	mvn.w	r3, #2
 8000f7e:	e021      	b.n	8000fc4 <MqttEncode_RemainLen+0x80>
        }

        /* Encode length */
        tmp_len = (remain_len % MQTT_PACKET_LEN_ENCODE_MASK);
 8000f80:	687b      	ldr	r3, [r7, #4]
 8000f82:	425a      	negs	r2, r3
 8000f84:	f003 037f 	and.w	r3, r3, #127	; 0x7f
 8000f88:	f002 027f 	and.w	r2, r2, #127	; 0x7f
 8000f8c:	bf58      	it	pl
 8000f8e:	4253      	negpl	r3, r2
 8000f90:	74fb      	strb	r3, [r7, #19]
        remain_len /= MQTT_PACKET_LEN_ENCODE_MASK;
 8000f92:	687b      	ldr	r3, [r7, #4]
 8000f94:	2b00      	cmp	r3, #0
 8000f96:	da00      	bge.n	8000f9a <MqttEncode_RemainLen+0x56>
 8000f98:	337f      	adds	r3, #127	; 0x7f
 8000f9a:	11db      	asrs	r3, r3, #7
 8000f9c:	607b      	str	r3, [r7, #4]

        /* If more length, set the top bit of this byte */
        if (remain_len > 0) {
 8000f9e:	687b      	ldr	r3, [r7, #4]
 8000fa0:	2b00      	cmp	r3, #0
 8000fa2:	dd03      	ble.n	8000fac <MqttEncode_RemainLen+0x68>
            tmp_len |= MQTT_PACKET_LEN_ENCODE_MASK;
 8000fa4:	7cfb      	ldrb	r3, [r7, #19]
 8000fa6:	f063 037f 	orn	r3, r3, #127	; 0x7f
 8000faa:	74fb      	strb	r3, [r7, #19]
        }
        header->len[encode_bytes++] = tmp_len;
 8000fac:	697b      	ldr	r3, [r7, #20]
 8000fae:	1c5a      	adds	r2, r3, #1
 8000fb0:	617a      	str	r2, [r7, #20]
 8000fb2:	68fa      	ldr	r2, [r7, #12]
 8000fb4:	4413      	add	r3, r2
 8000fb6:	7cfa      	ldrb	r2, [r7, #19]
 8000fb8:	705a      	strb	r2, [r3, #1]
    } while (remain_len > 0);
 8000fba:	687b      	ldr	r3, [r7, #4]
 8000fbc:	2b00      	cmp	r3, #0
 8000fbe:	dcd2      	bgt.n	8000f66 <MqttEncode_RemainLen+0x22>

    return encode_bytes + 1; /* Add byte for header flags/type */
 8000fc0:	697b      	ldr	r3, [r7, #20]
 8000fc2:	3301      	adds	r3, #1
}
 8000fc4:	4618      	mov	r0, r3
 8000fc6:	371c      	adds	r7, #28
 8000fc8:	46bd      	mov	sp, r7
 8000fca:	bc80      	pop	{r7}
 8000fcc:	4770      	bx	lr

08000fce <MqttDecode_Num>:

/* Returns number of buffer bytes decoded */
int MqttDecode_Num(byte* buf, word16 *len)
{
 8000fce:	b480      	push	{r7}
 8000fd0:	b083      	sub	sp, #12
 8000fd2:	af00      	add	r7, sp, #0
 8000fd4:	6078      	str	r0, [r7, #4]
 8000fd6:	6039      	str	r1, [r7, #0]
    if (len) {
 8000fd8:	683b      	ldr	r3, [r7, #0]
 8000fda:	2b00      	cmp	r3, #0
 8000fdc:	d011      	beq.n	8001002 <MqttDecode_Num+0x34>
        *len = buf[0];
 8000fde:	687b      	ldr	r3, [r7, #4]
 8000fe0:	781b      	ldrb	r3, [r3, #0]
 8000fe2:	b29a      	uxth	r2, r3
 8000fe4:	683b      	ldr	r3, [r7, #0]
 8000fe6:	801a      	strh	r2, [r3, #0]
        *len = (*len << 8) | buf[1];
 8000fe8:	683b      	ldr	r3, [r7, #0]
 8000fea:	881b      	ldrh	r3, [r3, #0]
 8000fec:	021b      	lsls	r3, r3, #8
 8000fee:	b21a      	sxth	r2, r3
 8000ff0:	687b      	ldr	r3, [r7, #4]
 8000ff2:	3301      	adds	r3, #1
 8000ff4:	781b      	ldrb	r3, [r3, #0]
 8000ff6:	b21b      	sxth	r3, r3
 8000ff8:	4313      	orrs	r3, r2
 8000ffa:	b21b      	sxth	r3, r3
 8000ffc:	b29a      	uxth	r2, r3
 8000ffe:	683b      	ldr	r3, [r7, #0]
 8001000:	801a      	strh	r2, [r3, #0]
    }
    return MQTT_DATA_LEN_SIZE;
 8001002:	2302      	movs	r3, #2
}
 8001004:	4618      	mov	r0, r3
 8001006:	370c      	adds	r7, #12
 8001008:	46bd      	mov	sp, r7
 800100a:	bc80      	pop	{r7}
 800100c:	4770      	bx	lr

0800100e <MqttEncode_Num>:

/* Returns number of buffer bytes encoded */
int MqttEncode_Num(byte *buf, word16 len)
{
 800100e:	b480      	push	{r7}
 8001010:	b083      	sub	sp, #12
 8001012:	af00      	add	r7, sp, #0
 8001014:	6078      	str	r0, [r7, #4]
 8001016:	460b      	mov	r3, r1
 8001018:	807b      	strh	r3, [r7, #2]
    buf[0] = len >> 8;
 800101a:	887b      	ldrh	r3, [r7, #2]
 800101c:	0a1b      	lsrs	r3, r3, #8
 800101e:	b29b      	uxth	r3, r3
 8001020:	b2da      	uxtb	r2, r3
 8001022:	687b      	ldr	r3, [r7, #4]
 8001024:	701a      	strb	r2, [r3, #0]
    buf[1] = len & 0xFF;
 8001026:	687b      	ldr	r3, [r7, #4]
 8001028:	3301      	adds	r3, #1
 800102a:	887a      	ldrh	r2, [r7, #2]
 800102c:	b2d2      	uxtb	r2, r2
 800102e:	701a      	strb	r2, [r3, #0]
    return MQTT_DATA_LEN_SIZE;
 8001030:	2302      	movs	r3, #2
}
 8001032:	4618      	mov	r0, r3
 8001034:	370c      	adds	r7, #12
 8001036:	46bd      	mov	sp, r7
 8001038:	bc80      	pop	{r7}
 800103a:	4770      	bx	lr

0800103c <MqttDecode_String>:

/* Returns number of buffer bytes decoded */
/* Returns pointer to string (which is not guarenteed to be null terminated) */
int MqttDecode_String(byte *buf, const char **pstr, word16 *pstr_len)
{
 800103c:	b580      	push	{r7, lr}
 800103e:	b086      	sub	sp, #24
 8001040:	af00      	add	r7, sp, #0
 8001042:	60f8      	str	r0, [r7, #12]
 8001044:	60b9      	str	r1, [r7, #8]
 8001046:	607a      	str	r2, [r7, #4]
    int len;
    word16 str_len;
    len = MqttDecode_Num(buf, &str_len);
 8001048:	f107 0312 	add.w	r3, r7, #18
 800104c:	4619      	mov	r1, r3
 800104e:	68f8      	ldr	r0, [r7, #12]
 8001050:	f7ff ffbd 	bl	8000fce <MqttDecode_Num>
 8001054:	6178      	str	r0, [r7, #20]
    buf += len;
 8001056:	697b      	ldr	r3, [r7, #20]
 8001058:	68fa      	ldr	r2, [r7, #12]
 800105a:	4413      	add	r3, r2
 800105c:	60fb      	str	r3, [r7, #12]
    if (pstr_len) {
 800105e:	687b      	ldr	r3, [r7, #4]
 8001060:	2b00      	cmp	r3, #0
 8001062:	d002      	beq.n	800106a <MqttDecode_String+0x2e>
        *pstr_len = str_len;
 8001064:	8a7a      	ldrh	r2, [r7, #18]
 8001066:	687b      	ldr	r3, [r7, #4]
 8001068:	801a      	strh	r2, [r3, #0]
    }
    if (pstr) {
 800106a:	68bb      	ldr	r3, [r7, #8]
 800106c:	2b00      	cmp	r3, #0
 800106e:	d002      	beq.n	8001076 <MqttDecode_String+0x3a>
        *pstr = (char*)buf;
 8001070:	68bb      	ldr	r3, [r7, #8]
 8001072:	68fa      	ldr	r2, [r7, #12]
 8001074:	601a      	str	r2, [r3, #0]
    }
    return len + str_len;
 8001076:	8a7b      	ldrh	r3, [r7, #18]
 8001078:	461a      	mov	r2, r3
 800107a:	697b      	ldr	r3, [r7, #20]
 800107c:	4413      	add	r3, r2
}
 800107e:	4618      	mov	r0, r3
 8001080:	3718      	adds	r7, #24
 8001082:	46bd      	mov	sp, r7
 8001084:	bd80      	pop	{r7, pc}

08001086 <MqttEncode_String>:

/* Returns number of buffer bytes encoded */
int MqttEncode_String(byte *buf, const char *str)
{
 8001086:	b580      	push	{r7, lr}
 8001088:	b084      	sub	sp, #16
 800108a:	af00      	add	r7, sp, #0
 800108c:	6078      	str	r0, [r7, #4]
 800108e:	6039      	str	r1, [r7, #0]
    int str_len = (int)XSTRLEN(str);
 8001090:	6838      	ldr	r0, [r7, #0]
 8001092:	f7ff f85b 	bl	800014c <strlen>
 8001096:	4603      	mov	r3, r0
 8001098:	60fb      	str	r3, [r7, #12]
    int len = (int)MqttEncode_Num(buf, (word16)str_len);
 800109a:	68fb      	ldr	r3, [r7, #12]
 800109c:	b29b      	uxth	r3, r3
 800109e:	4619      	mov	r1, r3
 80010a0:	6878      	ldr	r0, [r7, #4]
 80010a2:	f7ff ffb4 	bl	800100e <MqttEncode_Num>
 80010a6:	60b8      	str	r0, [r7, #8]
    buf += len;
 80010a8:	68bb      	ldr	r3, [r7, #8]
 80010aa:	687a      	ldr	r2, [r7, #4]
 80010ac:	4413      	add	r3, r2
 80010ae:	607b      	str	r3, [r7, #4]
    XMEMCPY(buf, str, str_len);
 80010b0:	68fb      	ldr	r3, [r7, #12]
 80010b2:	461a      	mov	r2, r3
 80010b4:	6839      	ldr	r1, [r7, #0]
 80010b6:	6878      	ldr	r0, [r7, #4]
 80010b8:	f001 fbf2 	bl	80028a0 <memcpy>
    return len + str_len;
 80010bc:	68ba      	ldr	r2, [r7, #8]
 80010be:	68fb      	ldr	r3, [r7, #12]
 80010c0:	4413      	add	r3, r2
}
 80010c2:	4618      	mov	r0, r3
 80010c4:	3710      	adds	r7, #16
 80010c6:	46bd      	mov	sp, r7
 80010c8:	bd80      	pop	{r7, pc}

080010ca <MqttEncode_Data>:

/* Returns number of buffer bytes encoded */
int MqttEncode_Data(byte *buf, const byte *data, word16 data_len)
{
 80010ca:	b580      	push	{r7, lr}
 80010cc:	b086      	sub	sp, #24
 80010ce:	af00      	add	r7, sp, #0
 80010d0:	60f8      	str	r0, [r7, #12]
 80010d2:	60b9      	str	r1, [r7, #8]
 80010d4:	4613      	mov	r3, r2
 80010d6:	80fb      	strh	r3, [r7, #6]
    int len = (int)MqttEncode_Num(buf, data_len);
 80010d8:	88fb      	ldrh	r3, [r7, #6]
 80010da:	4619      	mov	r1, r3
 80010dc:	68f8      	ldr	r0, [r7, #12]
 80010de:	f7ff ff96 	bl	800100e <MqttEncode_Num>
 80010e2:	6178      	str	r0, [r7, #20]
    buf += len;
 80010e4:	697b      	ldr	r3, [r7, #20]
 80010e6:	68fa      	ldr	r2, [r7, #12]
 80010e8:	4413      	add	r3, r2
 80010ea:	60fb      	str	r3, [r7, #12]
    XMEMCPY(buf, data, data_len);
 80010ec:	88fb      	ldrh	r3, [r7, #6]
 80010ee:	461a      	mov	r2, r3
 80010f0:	68b9      	ldr	r1, [r7, #8]
 80010f2:	68f8      	ldr	r0, [r7, #12]
 80010f4:	f001 fbd4 	bl	80028a0 <memcpy>
    return len + data_len;
 80010f8:	88fa      	ldrh	r2, [r7, #6]
 80010fa:	697b      	ldr	r3, [r7, #20]
 80010fc:	4413      	add	r3, r2
}
 80010fe:	4618      	mov	r0, r3
 8001100:	3718      	adds	r7, #24
 8001102:	46bd      	mov	sp, r7
 8001104:	bd80      	pop	{r7, pc}
	...

08001108 <MqttEncode_Connect>:


/* Packet Type Encoders/Decoders */
int MqttEncode_Connect(byte *tx_buf, int tx_buf_len, MqttConnect *connect)
{
 8001108:	b580      	push	{r7, lr}
 800110a:	b08e      	sub	sp, #56	; 0x38
 800110c:	af04      	add	r7, sp, #16
 800110e:	60f8      	str	r0, [r7, #12]
 8001110:	60b9      	str	r1, [r7, #8]
 8001112:	607a      	str	r2, [r7, #4]
    int header_len, remain_len;
    MqttConnectPacket packet = MQTT_CONNECT_INIT;
 8001114:	4a93      	ldr	r2, [pc, #588]	; (8001364 <MqttEncode_Connect+0x25c>)
 8001116:	f107 0310 	add.w	r3, r7, #16
 800111a:	ca07      	ldmia	r2, {r0, r1, r2}
 800111c:	c303      	stmia	r3!, {r0, r1}
 800111e:	801a      	strh	r2, [r3, #0]
    byte *tx_payload;

    /* Validate required arguments */
    if (tx_buf == NULL || connect == NULL || connect->client_id == NULL) {
 8001120:	68fb      	ldr	r3, [r7, #12]
 8001122:	2b00      	cmp	r3, #0
 8001124:	d006      	beq.n	8001134 <MqttEncode_Connect+0x2c>
 8001126:	687b      	ldr	r3, [r7, #4]
 8001128:	2b00      	cmp	r3, #0
 800112a:	d003      	beq.n	8001134 <MqttEncode_Connect+0x2c>
 800112c:	687b      	ldr	r3, [r7, #4]
 800112e:	689b      	ldr	r3, [r3, #8]
 8001130:	2b00      	cmp	r3, #0
 8001132:	d102      	bne.n	800113a <MqttEncode_Connect+0x32>
        return MQTT_CODE_ERROR_BAD_ARG;
 8001134:	f04f 33ff 	mov.w	r3, #4294967295	; 0xffffffff
 8001138:	e110      	b.n	800135c <MqttEncode_Connect+0x254>
    }

    /* Determine packet length */
    /* MQTT Version 4 header is 10 bytes */
    remain_len = sizeof(MqttConnectPacket);
 800113a:	230a      	movs	r3, #10
 800113c:	627b      	str	r3, [r7, #36]	; 0x24
    remain_len += (int)XSTRLEN(connect->client_id) + MQTT_DATA_LEN_SIZE;
 800113e:	687b      	ldr	r3, [r7, #4]
 8001140:	689b      	ldr	r3, [r3, #8]
 8001142:	4618      	mov	r0, r3
 8001144:	f7ff f802 	bl	800014c <strlen>
 8001148:	4603      	mov	r3, r0
 800114a:	3302      	adds	r3, #2
 800114c:	6a7a      	ldr	r2, [r7, #36]	; 0x24
 800114e:	4413      	add	r3, r2
 8001150:	627b      	str	r3, [r7, #36]	; 0x24
    if (connect->enable_lwt) {
 8001152:	687b      	ldr	r3, [r7, #4]
 8001154:	7b1b      	ldrb	r3, [r3, #12]
 8001156:	2b00      	cmp	r3, #0
 8001158:	d02c      	beq.n	80011b4 <MqttEncode_Connect+0xac>
        /* Verify all required fields are present */
        if (connect->lwt_msg == NULL ||
 800115a:	687b      	ldr	r3, [r7, #4]
 800115c:	691b      	ldr	r3, [r3, #16]
 800115e:	2b00      	cmp	r3, #0
 8001160:	d00e      	beq.n	8001180 <MqttEncode_Connect+0x78>
            connect->lwt_msg->topic_name == NULL ||
 8001162:	687b      	ldr	r3, [r7, #4]
 8001164:	691b      	ldr	r3, [r3, #16]
 8001166:	689b      	ldr	r3, [r3, #8]
        if (connect->lwt_msg == NULL ||
 8001168:	2b00      	cmp	r3, #0
 800116a:	d009      	beq.n	8001180 <MqttEncode_Connect+0x78>
            connect->lwt_msg->buffer == NULL ||
 800116c:	687b      	ldr	r3, [r7, #4]
 800116e:	691b      	ldr	r3, [r3, #16]
 8001170:	695b      	ldr	r3, [r3, #20]
            connect->lwt_msg->topic_name == NULL ||
 8001172:	2b00      	cmp	r3, #0
 8001174:	d004      	beq.n	8001180 <MqttEncode_Connect+0x78>
            connect->lwt_msg->total_len <= 0)
 8001176:	687b      	ldr	r3, [r7, #4]
 8001178:	691b      	ldr	r3, [r3, #16]
 800117a:	691b      	ldr	r3, [r3, #16]
            connect->lwt_msg->buffer == NULL ||
 800117c:	2b00      	cmp	r3, #0
 800117e:	d102      	bne.n	8001186 <MqttEncode_Connect+0x7e>
        {
            return MQTT_CODE_ERROR_BAD_ARG;
 8001180:	f04f 33ff 	mov.w	r3, #4294967295	; 0xffffffff
 8001184:	e0ea      	b.n	800135c <MqttEncode_Connect+0x254>
        }

        remain_len += (int)XSTRLEN(connect->lwt_msg->topic_name);
 8001186:	687b      	ldr	r3, [r7, #4]
 8001188:	691b      	ldr	r3, [r3, #16]
 800118a:	689b      	ldr	r3, [r3, #8]
 800118c:	4618      	mov	r0, r3
 800118e:	f7fe ffdd 	bl	800014c <strlen>
 8001192:	4603      	mov	r3, r0
 8001194:	461a      	mov	r2, r3
 8001196:	6a7b      	ldr	r3, [r7, #36]	; 0x24
 8001198:	4413      	add	r3, r2
 800119a:	627b      	str	r3, [r7, #36]	; 0x24
        remain_len += MQTT_DATA_LEN_SIZE;
 800119c:	6a7b      	ldr	r3, [r7, #36]	; 0x24
 800119e:	3302      	adds	r3, #2
 80011a0:	627b      	str	r3, [r7, #36]	; 0x24
        remain_len += connect->lwt_msg->total_len;
 80011a2:	687b      	ldr	r3, [r7, #4]
 80011a4:	691b      	ldr	r3, [r3, #16]
 80011a6:	691a      	ldr	r2, [r3, #16]
 80011a8:	6a7b      	ldr	r3, [r7, #36]	; 0x24
 80011aa:	4413      	add	r3, r2
 80011ac:	627b      	str	r3, [r7, #36]	; 0x24
        remain_len += MQTT_DATA_LEN_SIZE;
 80011ae:	6a7b      	ldr	r3, [r7, #36]	; 0x24
 80011b0:	3302      	adds	r3, #2
 80011b2:	627b      	str	r3, [r7, #36]	; 0x24
    }
    if (connect->username) {
 80011b4:	687b      	ldr	r3, [r7, #4]
 80011b6:	695b      	ldr	r3, [r3, #20]
 80011b8:	2b00      	cmp	r3, #0
 80011ba:	d009      	beq.n	80011d0 <MqttEncode_Connect+0xc8>
        remain_len += (int)XSTRLEN(connect->username) + MQTT_DATA_LEN_SIZE;
 80011bc:	687b      	ldr	r3, [r7, #4]
 80011be:	695b      	ldr	r3, [r3, #20]
 80011c0:	4618      	mov	r0, r3
 80011c2:	f7fe ffc3 	bl	800014c <strlen>
 80011c6:	4603      	mov	r3, r0
 80011c8:	3302      	adds	r3, #2
 80011ca:	6a7a      	ldr	r2, [r7, #36]	; 0x24
 80011cc:	4413      	add	r3, r2
 80011ce:	627b      	str	r3, [r7, #36]	; 0x24
    }
    if (connect->password) {
 80011d0:	687b      	ldr	r3, [r7, #4]
 80011d2:	699b      	ldr	r3, [r3, #24]
 80011d4:	2b00      	cmp	r3, #0
 80011d6:	d009      	beq.n	80011ec <MqttEncode_Connect+0xe4>
        remain_len += (int)XSTRLEN(connect->password) + MQTT_DATA_LEN_SIZE;
 80011d8:	687b      	ldr	r3, [r7, #4]
 80011da:	699b      	ldr	r3, [r3, #24]
 80011dc:	4618      	mov	r0, r3
 80011de:	f7fe ffb5 	bl	800014c <strlen>
 80011e2:	4603      	mov	r3, r0
 80011e4:	3302      	adds	r3, #2
 80011e6:	6a7a      	ldr	r2, [r7, #36]	; 0x24
 80011e8:	4413      	add	r3, r2
 80011ea:	627b      	str	r3, [r7, #36]	; 0x24
    }

    /* Encode fixed header */
    header_len = MqttEncode_FixedHeader(tx_buf, tx_buf_len, remain_len,
 80011ec:	2300      	movs	r3, #0
 80011ee:	9302      	str	r3, [sp, #8]
 80011f0:	2300      	movs	r3, #0
 80011f2:	9301      	str	r3, [sp, #4]
 80011f4:	2300      	movs	r3, #0
 80011f6:	9300      	str	r3, [sp, #0]
 80011f8:	2301      	movs	r3, #1
 80011fa:	6a7a      	ldr	r2, [r7, #36]	; 0x24
 80011fc:	68b9      	ldr	r1, [r7, #8]
 80011fe:	68f8      	ldr	r0, [r7, #12]
 8001200:	f7ff fdc5 	bl	8000d8e <MqttEncode_FixedHeader>
 8001204:	61f8      	str	r0, [r7, #28]
        MQTT_PACKET_TYPE_CONNECT, 0, 0, 0);
    if (header_len < 0) {
 8001206:	69fb      	ldr	r3, [r7, #28]
 8001208:	2b00      	cmp	r3, #0
 800120a:	da01      	bge.n	8001210 <MqttEncode_Connect+0x108>
        return header_len;
 800120c:	69fb      	ldr	r3, [r7, #28]
 800120e:	e0a5      	b.n	800135c <MqttEncode_Connect+0x254>
    }
    tx_payload = &tx_buf[header_len];
 8001210:	69fb      	ldr	r3, [r7, #28]
 8001212:	68fa      	ldr	r2, [r7, #12]
 8001214:	4413      	add	r3, r2
 8001216:	623b      	str	r3, [r7, #32]

    /* Encode variable header */
    /* Set connection flags */
    if (connect->clean_session) {
 8001218:	687b      	ldr	r3, [r7, #4]
 800121a:	791b      	ldrb	r3, [r3, #4]
 800121c:	2b00      	cmp	r3, #0
 800121e:	d004      	beq.n	800122a <MqttEncode_Connect+0x122>
        packet.flags |= MQTT_CONNECT_FLAG_CLEAN_SESSION;
 8001220:	7dfb      	ldrb	r3, [r7, #23]
 8001222:	f043 0302 	orr.w	r3, r3, #2
 8001226:	b2db      	uxtb	r3, r3
 8001228:	75fb      	strb	r3, [r7, #23]
    }
    if (connect->enable_lwt) {
 800122a:	687b      	ldr	r3, [r7, #4]
 800122c:	7b1b      	ldrb	r3, [r3, #12]
 800122e:	2b00      	cmp	r3, #0
 8001230:	d021      	beq.n	8001276 <MqttEncode_Connect+0x16e>
        packet.flags |= MQTT_CONNECT_FLAG_WILL_FLAG;
 8001232:	7dfb      	ldrb	r3, [r7, #23]
 8001234:	f043 0304 	orr.w	r3, r3, #4
 8001238:	b2db      	uxtb	r3, r3
 800123a:	75fb      	strb	r3, [r7, #23]

        if (connect->lwt_msg->qos) {
 800123c:	687b      	ldr	r3, [r7, #4]
 800123e:	691b      	ldr	r3, [r3, #16]
 8001240:	795b      	ldrb	r3, [r3, #5]
 8001242:	2b00      	cmp	r3, #0
 8001244:	d00d      	beq.n	8001262 <MqttEncode_Connect+0x15a>
            packet.flags |= MQTT_CONNECT_FLAG_SET_QOS(connect->lwt_msg->qos);
 8001246:	7dfb      	ldrb	r3, [r7, #23]
 8001248:	b25a      	sxtb	r2, r3
 800124a:	687b      	ldr	r3, [r7, #4]
 800124c:	691b      	ldr	r3, [r3, #16]
 800124e:	795b      	ldrb	r3, [r3, #5]
 8001250:	00db      	lsls	r3, r3, #3
 8001252:	b25b      	sxtb	r3, r3
 8001254:	f003 0318 	and.w	r3, r3, #24
 8001258:	b25b      	sxtb	r3, r3
 800125a:	4313      	orrs	r3, r2
 800125c:	b25b      	sxtb	r3, r3
 800125e:	b2db      	uxtb	r3, r3
 8001260:	75fb      	strb	r3, [r7, #23]
        }
        if (connect->lwt_msg->retain) {
 8001262:	687b      	ldr	r3, [r7, #4]
 8001264:	691b      	ldr	r3, [r3, #16]
 8001266:	799b      	ldrb	r3, [r3, #6]
 8001268:	2b00      	cmp	r3, #0
 800126a:	d004      	beq.n	8001276 <MqttEncode_Connect+0x16e>
            packet.flags |= MQTT_CONNECT_FLAG_WILL_RETAIN;
 800126c:	7dfb      	ldrb	r3, [r7, #23]
 800126e:	f043 0320 	orr.w	r3, r3, #32
 8001272:	b2db      	uxtb	r3, r3
 8001274:	75fb      	strb	r3, [r7, #23]
        }
    }
    if (connect->username) {
 8001276:	687b      	ldr	r3, [r7, #4]
 8001278:	695b      	ldr	r3, [r3, #20]
 800127a:	2b00      	cmp	r3, #0
 800127c:	d004      	beq.n	8001288 <MqttEncode_Connect+0x180>
        packet.flags |= MQTT_CONNECT_FLAG_USERNAME;
 800127e:	7dfb      	ldrb	r3, [r7, #23]
 8001280:	f063 037f 	orn	r3, r3, #127	; 0x7f
 8001284:	b2db      	uxtb	r3, r3
 8001286:	75fb      	strb	r3, [r7, #23]
    }
    if (connect->password) {
 8001288:	687b      	ldr	r3, [r7, #4]
 800128a:	699b      	ldr	r3, [r3, #24]
 800128c:	2b00      	cmp	r3, #0
 800128e:	d004      	beq.n	800129a <MqttEncode_Connect+0x192>
        packet.flags |= MQTT_CONNECT_FLAG_PASSWORD;
 8001290:	7dfb      	ldrb	r3, [r7, #23]
 8001292:	f043 0340 	orr.w	r3, r3, #64	; 0x40
 8001296:	b2db      	uxtb	r3, r3
 8001298:	75fb      	strb	r3, [r7, #23]
    }
    MqttEncode_Num((byte*)&packet.keep_alive, connect->keep_alive_sec);
 800129a:	687b      	ldr	r3, [r7, #4]
 800129c:	885a      	ldrh	r2, [r3, #2]
 800129e:	f107 0310 	add.w	r3, r7, #16
 80012a2:	3308      	adds	r3, #8
 80012a4:	4611      	mov	r1, r2
 80012a6:	4618      	mov	r0, r3
 80012a8:	f7ff feb1 	bl	800100e <MqttEncode_Num>
    XMEMCPY(tx_payload, &packet, sizeof(MqttConnectPacket));
 80012ac:	6a3b      	ldr	r3, [r7, #32]
 80012ae:	461a      	mov	r2, r3
 80012b0:	f107 0310 	add.w	r3, r7, #16
 80012b4:	cb03      	ldmia	r3!, {r0, r1}
 80012b6:	6010      	str	r0, [r2, #0]
 80012b8:	6051      	str	r1, [r2, #4]
 80012ba:	881b      	ldrh	r3, [r3, #0]
 80012bc:	8113      	strh	r3, [r2, #8]
    tx_payload += sizeof(MqttConnectPacket);
 80012be:	6a3b      	ldr	r3, [r7, #32]
 80012c0:	330a      	adds	r3, #10
 80012c2:	623b      	str	r3, [r7, #32]

    /* Encode payload */
    tx_payload += MqttEncode_String(tx_payload, connect->client_id);
 80012c4:	687b      	ldr	r3, [r7, #4]
 80012c6:	689b      	ldr	r3, [r3, #8]
 80012c8:	4619      	mov	r1, r3
 80012ca:	6a38      	ldr	r0, [r7, #32]
 80012cc:	f7ff fedb 	bl	8001086 <MqttEncode_String>
 80012d0:	4603      	mov	r3, r0
 80012d2:	461a      	mov	r2, r3
 80012d4:	6a3b      	ldr	r3, [r7, #32]
 80012d6:	4413      	add	r3, r2
 80012d8:	623b      	str	r3, [r7, #32]
    if (connect->enable_lwt) {
 80012da:	687b      	ldr	r3, [r7, #4]
 80012dc:	7b1b      	ldrb	r3, [r3, #12]
 80012de:	2b00      	cmp	r3, #0
 80012e0:	d01b      	beq.n	800131a <MqttEncode_Connect+0x212>
        tx_payload += MqttEncode_String(tx_payload,
            connect->lwt_msg->topic_name);
 80012e2:	687b      	ldr	r3, [r7, #4]
 80012e4:	691b      	ldr	r3, [r3, #16]
        tx_payload += MqttEncode_String(tx_payload,
 80012e6:	689b      	ldr	r3, [r3, #8]
 80012e8:	4619      	mov	r1, r3
 80012ea:	6a38      	ldr	r0, [r7, #32]
 80012ec:	f7ff fecb 	bl	8001086 <MqttEncode_String>
 80012f0:	4603      	mov	r3, r0
 80012f2:	461a      	mov	r2, r3
 80012f4:	6a3b      	ldr	r3, [r7, #32]
 80012f6:	4413      	add	r3, r2
 80012f8:	623b      	str	r3, [r7, #32]
        tx_payload += MqttEncode_Data(tx_payload,
            connect->lwt_msg->buffer, (word16)connect->lwt_msg->total_len);
 80012fa:	687b      	ldr	r3, [r7, #4]
 80012fc:	691b      	ldr	r3, [r3, #16]
 80012fe:	6959      	ldr	r1, [r3, #20]
 8001300:	687b      	ldr	r3, [r7, #4]
 8001302:	691b      	ldr	r3, [r3, #16]
 8001304:	691b      	ldr	r3, [r3, #16]
        tx_payload += MqttEncode_Data(tx_payload,
 8001306:	b29b      	uxth	r3, r3
 8001308:	461a      	mov	r2, r3
 800130a:	6a38      	ldr	r0, [r7, #32]
 800130c:	f7ff fedd 	bl	80010ca <MqttEncode_Data>
 8001310:	4603      	mov	r3, r0
 8001312:	461a      	mov	r2, r3
 8001314:	6a3b      	ldr	r3, [r7, #32]
 8001316:	4413      	add	r3, r2
 8001318:	623b      	str	r3, [r7, #32]
    }
    if (connect->username) {
 800131a:	687b      	ldr	r3, [r7, #4]
 800131c:	695b      	ldr	r3, [r3, #20]
 800131e:	2b00      	cmp	r3, #0
 8001320:	d00a      	beq.n	8001338 <MqttEncode_Connect+0x230>
        tx_payload += MqttEncode_String(tx_payload, connect->username);
 8001322:	687b      	ldr	r3, [r7, #4]
 8001324:	695b      	ldr	r3, [r3, #20]
 8001326:	4619      	mov	r1, r3
 8001328:	6a38      	ldr	r0, [r7, #32]
 800132a:	f7ff feac 	bl	8001086 <MqttEncode_String>
 800132e:	4603      	mov	r3, r0
 8001330:	461a      	mov	r2, r3
 8001332:	6a3b      	ldr	r3, [r7, #32]
 8001334:	4413      	add	r3, r2
 8001336:	623b      	str	r3, [r7, #32]
    }
    if (connect->password) {
 8001338:	687b      	ldr	r3, [r7, #4]
 800133a:	699b      	ldr	r3, [r3, #24]
 800133c:	2b00      	cmp	r3, #0
 800133e:	d00a      	beq.n	8001356 <MqttEncode_Connect+0x24e>
        tx_payload += MqttEncode_String(tx_payload, connect->password);
 8001340:	687b      	ldr	r3, [r7, #4]
 8001342:	699b      	ldr	r3, [r3, #24]
 8001344:	4619      	mov	r1, r3
 8001346:	6a38      	ldr	r0, [r7, #32]
 8001348:	f7ff fe9d 	bl	8001086 <MqttEncode_String>
 800134c:	4603      	mov	r3, r0
 800134e:	461a      	mov	r2, r3
 8001350:	6a3b      	ldr	r3, [r7, #32]
 8001352:	4413      	add	r3, r2
 8001354:	623b      	str	r3, [r7, #32]
    }
    (void)tx_payload;

    /* Return total length of packet */
    return header_len + remain_len;
 8001356:	69fa      	ldr	r2, [r7, #28]
 8001358:	6a7b      	ldr	r3, [r7, #36]	; 0x24
 800135a:	4413      	add	r3, r2
}
 800135c:	4618      	mov	r0, r3
 800135e:	3728      	adds	r7, #40	; 0x28
 8001360:	46bd      	mov	sp, r7
 8001362:	bd80      	pop	{r7, pc}
 8001364:	0800292c 	.word	0x0800292c

08001368 <MqttDecode_ConnectAck>:

int MqttDecode_ConnectAck(byte *rx_buf, int rx_buf_len,
    MqttConnectAck *connect_ack)
{
 8001368:	b580      	push	{r7, lr}
 800136a:	b08c      	sub	sp, #48	; 0x30
 800136c:	af04      	add	r7, sp, #16
 800136e:	60f8      	str	r0, [r7, #12]
 8001370:	60b9      	str	r1, [r7, #8]
 8001372:	607a      	str	r2, [r7, #4]
    int header_len, remain_len;
    byte *rx_payload;

    /* Validate required arguments */
    if (rx_buf == NULL || rx_buf_len <= 0) {
 8001374:	68fb      	ldr	r3, [r7, #12]
 8001376:	2b00      	cmp	r3, #0
 8001378:	d002      	beq.n	8001380 <MqttDecode_ConnectAck+0x18>
 800137a:	68bb      	ldr	r3, [r7, #8]
 800137c:	2b00      	cmp	r3, #0
 800137e:	dc02      	bgt.n	8001386 <MqttDecode_ConnectAck+0x1e>
        return MQTT_CODE_ERROR_BAD_ARG;
 8001380:	f04f 33ff 	mov.w	r3, #4294967295	; 0xffffffff
 8001384:	e024      	b.n	80013d0 <MqttDecode_ConnectAck+0x68>
    }

    /* Decode fixed header */
    header_len = MqttDecode_FixedHeader(rx_buf, rx_buf_len, &remain_len,
 8001386:	f107 0214 	add.w	r2, r7, #20
 800138a:	2300      	movs	r3, #0
 800138c:	9302      	str	r3, [sp, #8]
 800138e:	2300      	movs	r3, #0
 8001390:	9301      	str	r3, [sp, #4]
 8001392:	2300      	movs	r3, #0
 8001394:	9300      	str	r3, [sp, #0]
 8001396:	2302      	movs	r3, #2
 8001398:	68b9      	ldr	r1, [r7, #8]
 800139a:	68f8      	ldr	r0, [r7, #12]
 800139c:	f7ff fd3e 	bl	8000e1c <MqttDecode_FixedHeader>
 80013a0:	61f8      	str	r0, [r7, #28]
        MQTT_PACKET_TYPE_CONNECT_ACK, NULL, NULL, NULL);
    if (header_len < 0) {
 80013a2:	69fb      	ldr	r3, [r7, #28]
 80013a4:	2b00      	cmp	r3, #0
 80013a6:	da01      	bge.n	80013ac <MqttDecode_ConnectAck+0x44>
        return header_len;
 80013a8:	69fb      	ldr	r3, [r7, #28]
 80013aa:	e011      	b.n	80013d0 <MqttDecode_ConnectAck+0x68>
    }
    rx_payload = &rx_buf[header_len];
 80013ac:	69fb      	ldr	r3, [r7, #28]
 80013ae:	68fa      	ldr	r2, [r7, #12]
 80013b0:	4413      	add	r3, r2
 80013b2:	61bb      	str	r3, [r7, #24]

    /* Decode variable header */
    if (connect_ack) {
 80013b4:	687b      	ldr	r3, [r7, #4]
 80013b6:	2b00      	cmp	r3, #0
 80013b8:	d007      	beq.n	80013ca <MqttDecode_ConnectAck+0x62>
        connect_ack->flags = rx_payload[0];
 80013ba:	69bb      	ldr	r3, [r7, #24]
 80013bc:	781a      	ldrb	r2, [r3, #0]
 80013be:	687b      	ldr	r3, [r7, #4]
 80013c0:	701a      	strb	r2, [r3, #0]
        connect_ack->return_code = rx_payload[1];
 80013c2:	69bb      	ldr	r3, [r7, #24]
 80013c4:	785a      	ldrb	r2, [r3, #1]
 80013c6:	687b      	ldr	r3, [r7, #4]
 80013c8:	705a      	strb	r2, [r3, #1]
    }

    /* Return total length of packet */
    return header_len + remain_len;
 80013ca:	697a      	ldr	r2, [r7, #20]
 80013cc:	69fb      	ldr	r3, [r7, #28]
 80013ce:	4413      	add	r3, r2
}
 80013d0:	4618      	mov	r0, r3
 80013d2:	3720      	adds	r7, #32
 80013d4:	46bd      	mov	sp, r7
 80013d6:	bd80      	pop	{r7, pc}

080013d8 <MqttEncode_Publish>:

int MqttEncode_Publish(byte *tx_buf, int tx_buf_len, MqttPublish *publish)
{
 80013d8:	b580      	push	{r7, lr}
 80013da:	b08c      	sub	sp, #48	; 0x30
 80013dc:	af04      	add	r7, sp, #16
 80013de:	60f8      	str	r0, [r7, #12]
 80013e0:	60b9      	str	r1, [r7, #8]
 80013e2:	607a      	str	r2, [r7, #4]
    int header_len, variable_len, payload_len = 0;
 80013e4:	2300      	movs	r3, #0
 80013e6:	61bb      	str	r3, [r7, #24]
    byte *tx_payload;

    /* Validate required arguments */
    if (tx_buf == NULL || publish == NULL) {
 80013e8:	68fb      	ldr	r3, [r7, #12]
 80013ea:	2b00      	cmp	r3, #0
 80013ec:	d002      	beq.n	80013f4 <MqttEncode_Publish+0x1c>
 80013ee:	687b      	ldr	r3, [r7, #4]
 80013f0:	2b00      	cmp	r3, #0
 80013f2:	d102      	bne.n	80013fa <MqttEncode_Publish+0x22>
        return MQTT_CODE_ERROR_BAD_ARG;
 80013f4:	f04f 33ff 	mov.w	r3, #4294967295	; 0xffffffff
 80013f8:	e079      	b.n	80014ee <MqttEncode_Publish+0x116>
    }

    /* Determine packet length */
    variable_len = (int)XSTRLEN(publish->topic_name) + MQTT_DATA_LEN_SIZE;
 80013fa:	687b      	ldr	r3, [r7, #4]
 80013fc:	689b      	ldr	r3, [r3, #8]
 80013fe:	4618      	mov	r0, r3
 8001400:	f7fe fea4 	bl	800014c <strlen>
 8001404:	4603      	mov	r3, r0
 8001406:	3302      	adds	r3, #2
 8001408:	61fb      	str	r3, [r7, #28]
    if (publish->qos > MQTT_QOS_0) {
 800140a:	687b      	ldr	r3, [r7, #4]
 800140c:	795b      	ldrb	r3, [r3, #5]
 800140e:	2b00      	cmp	r3, #0
 8001410:	d009      	beq.n	8001426 <MqttEncode_Publish+0x4e>
        if (publish->packet_id == 0) {
 8001412:	687b      	ldr	r3, [r7, #4]
 8001414:	885b      	ldrh	r3, [r3, #2]
 8001416:	2b00      	cmp	r3, #0
 8001418:	d102      	bne.n	8001420 <MqttEncode_Publish+0x48>
            return MQTT_CODE_ERROR_PACKET_ID;
 800141a:	f06f 0304 	mvn.w	r3, #4
 800141e:	e066      	b.n	80014ee <MqttEncode_Publish+0x116>
        }
        variable_len += MQTT_DATA_LEN_SIZE; /* For packet_id */
 8001420:	69fb      	ldr	r3, [r7, #28]
 8001422:	3302      	adds	r3, #2
 8001424:	61fb      	str	r3, [r7, #28]
    }
    if (publish->buffer && publish->total_len > 0) {
 8001426:	687b      	ldr	r3, [r7, #4]
 8001428:	695b      	ldr	r3, [r3, #20]
 800142a:	2b00      	cmp	r3, #0
 800142c:	d006      	beq.n	800143c <MqttEncode_Publish+0x64>
 800142e:	687b      	ldr	r3, [r7, #4]
 8001430:	691b      	ldr	r3, [r3, #16]
 8001432:	2b00      	cmp	r3, #0
 8001434:	d002      	beq.n	800143c <MqttEncode_Publish+0x64>
        payload_len = publish->total_len;
 8001436:	687b      	ldr	r3, [r7, #4]
 8001438:	691b      	ldr	r3, [r3, #16]
 800143a:	61bb      	str	r3, [r7, #24]
    }

    /* Encode fixed header */
    header_len = MqttEncode_FixedHeader(tx_buf, tx_buf_len,
 800143c:	69fa      	ldr	r2, [r7, #28]
 800143e:	69bb      	ldr	r3, [r7, #24]
 8001440:	18d0      	adds	r0, r2, r3
 8001442:	687b      	ldr	r3, [r7, #4]
 8001444:	799b      	ldrb	r3, [r3, #6]
        variable_len + payload_len, MQTT_PACKET_TYPE_PUBLISH,
        publish->retain, publish->qos, publish->duplicate);
 8001446:	687a      	ldr	r2, [r7, #4]
 8001448:	7952      	ldrb	r2, [r2, #5]
    header_len = MqttEncode_FixedHeader(tx_buf, tx_buf_len,
 800144a:	6879      	ldr	r1, [r7, #4]
 800144c:	79c9      	ldrb	r1, [r1, #7]
 800144e:	9102      	str	r1, [sp, #8]
 8001450:	9201      	str	r2, [sp, #4]
 8001452:	9300      	str	r3, [sp, #0]
 8001454:	2303      	movs	r3, #3
 8001456:	4602      	mov	r2, r0
 8001458:	68b9      	ldr	r1, [r7, #8]
 800145a:	68f8      	ldr	r0, [r7, #12]
 800145c:	f7ff fc97 	bl	8000d8e <MqttEncode_FixedHeader>
 8001460:	6138      	str	r0, [r7, #16]
    if (header_len < 0) {
 8001462:	693b      	ldr	r3, [r7, #16]
 8001464:	2b00      	cmp	r3, #0
 8001466:	da01      	bge.n	800146c <MqttEncode_Publish+0x94>
        return header_len;
 8001468:	693b      	ldr	r3, [r7, #16]
 800146a:	e040      	b.n	80014ee <MqttEncode_Publish+0x116>
    }
    tx_payload = &tx_buf[header_len];
 800146c:	693b      	ldr	r3, [r7, #16]
 800146e:	68fa      	ldr	r2, [r7, #12]
 8001470:	4413      	add	r3, r2
 8001472:	617b      	str	r3, [r7, #20]

    /* Encode variable header */
    tx_payload += MqttEncode_String(tx_payload, publish->topic_name);
 8001474:	687b      	ldr	r3, [r7, #4]
 8001476:	689b      	ldr	r3, [r3, #8]
 8001478:	4619      	mov	r1, r3
 800147a:	6978      	ldr	r0, [r7, #20]
 800147c:	f7ff fe03 	bl	8001086 <MqttEncode_String>
 8001480:	4603      	mov	r3, r0
 8001482:	461a      	mov	r2, r3
 8001484:	697b      	ldr	r3, [r7, #20]
 8001486:	4413      	add	r3, r2
 8001488:	617b      	str	r3, [r7, #20]
    if (publish->qos > MQTT_QOS_0) {
 800148a:	687b      	ldr	r3, [r7, #4]
 800148c:	795b      	ldrb	r3, [r3, #5]
 800148e:	2b00      	cmp	r3, #0
 8001490:	d00a      	beq.n	80014a8 <MqttEncode_Publish+0xd0>
        tx_payload += MqttEncode_Num(tx_payload, publish->packet_id);
 8001492:	687b      	ldr	r3, [r7, #4]
 8001494:	885b      	ldrh	r3, [r3, #2]
 8001496:	4619      	mov	r1, r3
 8001498:	6978      	ldr	r0, [r7, #20]
 800149a:	f7ff fdb8 	bl	800100e <MqttEncode_Num>
 800149e:	4603      	mov	r3, r0
 80014a0:	461a      	mov	r2, r3
 80014a2:	697b      	ldr	r3, [r7, #20]
 80014a4:	4413      	add	r3, r2
 80014a6:	617b      	str	r3, [r7, #20]
    }

    /* Encode payload */
    if (payload_len > 0) {
 80014a8:	69bb      	ldr	r3, [r7, #24]
 80014aa:	2b00      	cmp	r3, #0
 80014ac:	dd14      	ble.n	80014d8 <MqttEncode_Publish+0x100>

        /* Determine max size to copy into tx_payload */
        if (payload_len > (tx_buf_len - (header_len + variable_len))) {
 80014ae:	693a      	ldr	r2, [r7, #16]
 80014b0:	69fb      	ldr	r3, [r7, #28]
 80014b2:	4413      	add	r3, r2
 80014b4:	68ba      	ldr	r2, [r7, #8]
 80014b6:	1ad2      	subs	r2, r2, r3
 80014b8:	69bb      	ldr	r3, [r7, #24]
 80014ba:	429a      	cmp	r2, r3
 80014bc:	da05      	bge.n	80014ca <MqttEncode_Publish+0xf2>
            payload_len = (tx_buf_len - (header_len + variable_len));
 80014be:	693a      	ldr	r2, [r7, #16]
 80014c0:	69fb      	ldr	r3, [r7, #28]
 80014c2:	4413      	add	r3, r2
 80014c4:	68ba      	ldr	r2, [r7, #8]
 80014c6:	1ad3      	subs	r3, r2, r3
 80014c8:	61bb      	str	r3, [r7, #24]
        }
        XMEMCPY(tx_payload, publish->buffer, payload_len);
 80014ca:	687b      	ldr	r3, [r7, #4]
 80014cc:	695b      	ldr	r3, [r3, #20]
 80014ce:	69ba      	ldr	r2, [r7, #24]
 80014d0:	4619      	mov	r1, r3
 80014d2:	6978      	ldr	r0, [r7, #20]
 80014d4:	f001 f9e4 	bl	80028a0 <memcpy>
    }
    publish->buffer_pos = 0;
 80014d8:	687b      	ldr	r3, [r7, #4]
 80014da:	2200      	movs	r2, #0
 80014dc:	621a      	str	r2, [r3, #32]
    publish->buffer_len = payload_len;
 80014de:	69ba      	ldr	r2, [r7, #24]
 80014e0:	687b      	ldr	r3, [r7, #4]
 80014e2:	61da      	str	r2, [r3, #28]

    /* Return length of packet placed into tx_buf */
    return header_len + variable_len + payload_len;
 80014e4:	693a      	ldr	r2, [r7, #16]
 80014e6:	69fb      	ldr	r3, [r7, #28]
 80014e8:	441a      	add	r2, r3
 80014ea:	69bb      	ldr	r3, [r7, #24]
 80014ec:	4413      	add	r3, r2
}
 80014ee:	4618      	mov	r0, r3
 80014f0:	3720      	adds	r7, #32
 80014f2:	46bd      	mov	sp, r7
 80014f4:	bd80      	pop	{r7, pc}

080014f6 <MqttDecode_Publish>:

int MqttDecode_Publish(byte *rx_buf, int rx_buf_len, MqttPublish *publish)
{
 80014f6:	b580      	push	{r7, lr}
 80014f8:	b08e      	sub	sp, #56	; 0x38
 80014fa:	af04      	add	r7, sp, #16
 80014fc:	60f8      	str	r0, [r7, #12]
 80014fe:	60b9      	str	r1, [r7, #8]
 8001500:	607a      	str	r2, [r7, #4]
    int header_len, remain_len, variable_len, payload_len;
    byte *rx_payload;

    /* Validate required arguments */
    if (rx_buf == NULL || rx_buf_len <= 0 || publish == NULL) {
 8001502:	68fb      	ldr	r3, [r7, #12]
 8001504:	2b00      	cmp	r3, #0
 8001506:	d005      	beq.n	8001514 <MqttDecode_Publish+0x1e>
 8001508:	68bb      	ldr	r3, [r7, #8]
 800150a:	2b00      	cmp	r3, #0
 800150c:	dd02      	ble.n	8001514 <MqttDecode_Publish+0x1e>
 800150e:	687b      	ldr	r3, [r7, #4]
 8001510:	2b00      	cmp	r3, #0
 8001512:	d102      	bne.n	800151a <MqttDecode_Publish+0x24>
        return MQTT_CODE_ERROR_BAD_ARG;
 8001514:	f04f 33ff 	mov.w	r3, #4294967295	; 0xffffffff
 8001518:	e060      	b.n	80015dc <MqttDecode_Publish+0xe6>
    }

    /* Decode fixed header */
    header_len = MqttDecode_FixedHeader(rx_buf, rx_buf_len,
 800151a:	687b      	ldr	r3, [r7, #4]
 800151c:	3305      	adds	r3, #5
 800151e:	687a      	ldr	r2, [r7, #4]
 8001520:	3206      	adds	r2, #6
 8001522:	6879      	ldr	r1, [r7, #4]
 8001524:	3107      	adds	r1, #7
 8001526:	f107 0014 	add.w	r0, r7, #20
 800152a:	9102      	str	r1, [sp, #8]
 800152c:	9201      	str	r2, [sp, #4]
 800152e:	9300      	str	r3, [sp, #0]
 8001530:	2303      	movs	r3, #3
 8001532:	4602      	mov	r2, r0
 8001534:	68b9      	ldr	r1, [r7, #8]
 8001536:	68f8      	ldr	r0, [r7, #12]
 8001538:	f7ff fc70 	bl	8000e1c <MqttDecode_FixedHeader>
 800153c:	61f8      	str	r0, [r7, #28]
        &remain_len, MQTT_PACKET_TYPE_PUBLISH, &publish->qos,
        &publish->retain, &publish->duplicate);
    if (header_len < 0) {
 800153e:	69fb      	ldr	r3, [r7, #28]
 8001540:	2b00      	cmp	r3, #0
 8001542:	da01      	bge.n	8001548 <MqttDecode_Publish+0x52>
        return header_len;
 8001544:	69fb      	ldr	r3, [r7, #28]
 8001546:	e049      	b.n	80015dc <MqttDecode_Publish+0xe6>
    }
    rx_payload = &rx_buf[header_len];
 8001548:	69fb      	ldr	r3, [r7, #28]
 800154a:	68fa      	ldr	r2, [r7, #12]
 800154c:	4413      	add	r3, r2
 800154e:	623b      	str	r3, [r7, #32]

    /* Decode variable header */
    variable_len = MqttDecode_String(rx_payload, &publish->topic_name,
 8001550:	687b      	ldr	r3, [r7, #4]
 8001552:	f103 0108 	add.w	r1, r3, #8
 8001556:	687b      	ldr	r3, [r7, #4]
 8001558:	330c      	adds	r3, #12
 800155a:	461a      	mov	r2, r3
 800155c:	6a38      	ldr	r0, [r7, #32]
 800155e:	f7ff fd6d 	bl	800103c <MqttDecode_String>
 8001562:	6278      	str	r0, [r7, #36]	; 0x24
        &publish->topic_name_len);
    rx_payload += variable_len;
 8001564:	6a7b      	ldr	r3, [r7, #36]	; 0x24
 8001566:	6a3a      	ldr	r2, [r7, #32]
 8001568:	4413      	add	r3, r2
 800156a:	623b      	str	r3, [r7, #32]

    /* If QoS > 0 then get packet Id */
    if (publish->qos > MQTT_QOS_0) {
 800156c:	687b      	ldr	r3, [r7, #4]
 800156e:	795b      	ldrb	r3, [r3, #5]
 8001570:	2b00      	cmp	r3, #0
 8001572:	d00c      	beq.n	800158e <MqttDecode_Publish+0x98>
        variable_len += MqttDecode_Num(rx_payload, &publish->packet_id);
 8001574:	687b      	ldr	r3, [r7, #4]
 8001576:	3302      	adds	r3, #2
 8001578:	4619      	mov	r1, r3
 800157a:	6a38      	ldr	r0, [r7, #32]
 800157c:	f7ff fd27 	bl	8000fce <MqttDecode_Num>
 8001580:	4602      	mov	r2, r0
 8001582:	6a7b      	ldr	r3, [r7, #36]	; 0x24
 8001584:	4413      	add	r3, r2
 8001586:	627b      	str	r3, [r7, #36]	; 0x24
        rx_payload += MQTT_DATA_LEN_SIZE;
 8001588:	6a3b      	ldr	r3, [r7, #32]
 800158a:	3302      	adds	r3, #2
 800158c:	623b      	str	r3, [r7, #32]
    }

    /* Decode Payload */
    payload_len = remain_len - variable_len;
 800158e:	697a      	ldr	r2, [r7, #20]
 8001590:	6a7b      	ldr	r3, [r7, #36]	; 0x24
 8001592:	1ad3      	subs	r3, r2, r3
 8001594:	61bb      	str	r3, [r7, #24]
    publish->buffer = rx_payload;
 8001596:	687b      	ldr	r3, [r7, #4]
 8001598:	6a3a      	ldr	r2, [r7, #32]
 800159a:	615a      	str	r2, [r3, #20]
    publish->buffer_pos = 0;
 800159c:	687b      	ldr	r3, [r7, #4]
 800159e:	2200      	movs	r2, #0
 80015a0:	621a      	str	r2, [r3, #32]
    publish->buffer_len = payload_len;
 80015a2:	69ba      	ldr	r2, [r7, #24]
 80015a4:	687b      	ldr	r3, [r7, #4]
 80015a6:	61da      	str	r2, [r3, #28]
    publish->total_len = payload_len;
 80015a8:	69ba      	ldr	r2, [r7, #24]
 80015aa:	687b      	ldr	r3, [r7, #4]
 80015ac:	611a      	str	r2, [r3, #16]

    /* Only return the length provided in rx_buf_len */
    if ((int)publish->buffer_len >
 80015ae:	687b      	ldr	r3, [r7, #4]
 80015b0:	69db      	ldr	r3, [r3, #28]
 80015b2:	4619      	mov	r1, r3
        (rx_buf_len - (header_len + variable_len)))
 80015b4:	69fa      	ldr	r2, [r7, #28]
 80015b6:	6a7b      	ldr	r3, [r7, #36]	; 0x24
 80015b8:	4413      	add	r3, r2
 80015ba:	68ba      	ldr	r2, [r7, #8]
 80015bc:	1ad3      	subs	r3, r2, r3
    if ((int)publish->buffer_len >
 80015be:	4299      	cmp	r1, r3
 80015c0:	dd07      	ble.n	80015d2 <MqttDecode_Publish+0xdc>
    {
        publish->buffer_len = (rx_buf_len - (header_len + variable_len));
 80015c2:	69fa      	ldr	r2, [r7, #28]
 80015c4:	6a7b      	ldr	r3, [r7, #36]	; 0x24
 80015c6:	4413      	add	r3, r2
 80015c8:	68ba      	ldr	r2, [r7, #8]
 80015ca:	1ad3      	subs	r3, r2, r3
 80015cc:	461a      	mov	r2, r3
 80015ce:	687b      	ldr	r3, [r7, #4]
 80015d0:	61da      	str	r2, [r3, #28]
    }

    return header_len + variable_len + payload_len;
 80015d2:	69fa      	ldr	r2, [r7, #28]
 80015d4:	6a7b      	ldr	r3, [r7, #36]	; 0x24
 80015d6:	441a      	add	r2, r3
 80015d8:	69bb      	ldr	r3, [r7, #24]
 80015da:	4413      	add	r3, r2
}
 80015dc:	4618      	mov	r0, r3
 80015de:	3728      	adds	r7, #40	; 0x28
 80015e0:	46bd      	mov	sp, r7
 80015e2:	bd80      	pop	{r7, pc}

080015e4 <MqttEncode_PublishResp>:

int MqttEncode_PublishResp(byte* tx_buf, int tx_buf_len, byte type,
    MqttPublishResp *publish_resp)
{
 80015e4:	b580      	push	{r7, lr}
 80015e6:	b08c      	sub	sp, #48	; 0x30
 80015e8:	af04      	add	r7, sp, #16
 80015ea:	60f8      	str	r0, [r7, #12]
 80015ec:	60b9      	str	r1, [r7, #8]
 80015ee:	603b      	str	r3, [r7, #0]
 80015f0:	4613      	mov	r3, r2
 80015f2:	71fb      	strb	r3, [r7, #7]
    int header_len, remain_len;
    byte *tx_payload;
    MqttQoS qos;

    /* Validate required arguments */
    if (tx_buf == NULL || publish_resp == NULL) {
 80015f4:	68fb      	ldr	r3, [r7, #12]
 80015f6:	2b00      	cmp	r3, #0
 80015f8:	d002      	beq.n	8001600 <MqttEncode_PublishResp+0x1c>
 80015fa:	683b      	ldr	r3, [r7, #0]
 80015fc:	2b00      	cmp	r3, #0
 80015fe:	d102      	bne.n	8001606 <MqttEncode_PublishResp+0x22>
        return MQTT_CODE_ERROR_BAD_ARG;
 8001600:	f04f 33ff 	mov.w	r3, #4294967295	; 0xffffffff
 8001604:	e030      	b.n	8001668 <MqttEncode_PublishResp+0x84>
    }

    /* Determine packet length */
    remain_len = MQTT_DATA_LEN_SIZE; /* For packet_id */
 8001606:	2302      	movs	r3, #2
 8001608:	61fb      	str	r3, [r7, #28]

    /* Determine Qos value */
    qos = (type == MQTT_PACKET_TYPE_PUBLISH_REL) ? MQTT_QOS_1 : MQTT_QOS_0;
 800160a:	79fb      	ldrb	r3, [r7, #7]
 800160c:	2b06      	cmp	r3, #6
 800160e:	bf0c      	ite	eq
 8001610:	2301      	moveq	r3, #1
 8001612:	2300      	movne	r3, #0
 8001614:	b2db      	uxtb	r3, r3
 8001616:	76fb      	strb	r3, [r7, #27]

    /* Encode fixed header */
    header_len = MqttEncode_FixedHeader(tx_buf, tx_buf_len, remain_len,
 8001618:	79fa      	ldrb	r2, [r7, #7]
 800161a:	2300      	movs	r3, #0
 800161c:	9302      	str	r3, [sp, #8]
 800161e:	7efb      	ldrb	r3, [r7, #27]
 8001620:	9301      	str	r3, [sp, #4]
 8001622:	2300      	movs	r3, #0
 8001624:	9300      	str	r3, [sp, #0]
 8001626:	4613      	mov	r3, r2
 8001628:	69fa      	ldr	r2, [r7, #28]
 800162a:	68b9      	ldr	r1, [r7, #8]
 800162c:	68f8      	ldr	r0, [r7, #12]
 800162e:	f7ff fbae 	bl	8000d8e <MqttEncode_FixedHeader>
 8001632:	6178      	str	r0, [r7, #20]
        type, 0, qos, 0);
    if (header_len < 0) {
 8001634:	697b      	ldr	r3, [r7, #20]
 8001636:	2b00      	cmp	r3, #0
 8001638:	da01      	bge.n	800163e <MqttEncode_PublishResp+0x5a>
        return header_len;
 800163a:	697b      	ldr	r3, [r7, #20]
 800163c:	e014      	b.n	8001668 <MqttEncode_PublishResp+0x84>
    }
    tx_payload = &tx_buf[header_len];
 800163e:	697b      	ldr	r3, [r7, #20]
 8001640:	68fa      	ldr	r2, [r7, #12]
 8001642:	4413      	add	r3, r2
 8001644:	613b      	str	r3, [r7, #16]

    /* Encode variable header */
    tx_payload += MqttEncode_Num(&tx_buf[header_len], publish_resp->packet_id);
 8001646:	697b      	ldr	r3, [r7, #20]
 8001648:	68fa      	ldr	r2, [r7, #12]
 800164a:	441a      	add	r2, r3
 800164c:	683b      	ldr	r3, [r7, #0]
 800164e:	881b      	ldrh	r3, [r3, #0]
 8001650:	4619      	mov	r1, r3
 8001652:	4610      	mov	r0, r2
 8001654:	f7ff fcdb 	bl	800100e <MqttEncode_Num>
 8001658:	4603      	mov	r3, r0
 800165a:	461a      	mov	r2, r3
 800165c:	693b      	ldr	r3, [r7, #16]
 800165e:	4413      	add	r3, r2
 8001660:	613b      	str	r3, [r7, #16]
    (void)tx_payload;

    /* Return total length of packet */
    return header_len + remain_len;
 8001662:	697a      	ldr	r2, [r7, #20]
 8001664:	69fb      	ldr	r3, [r7, #28]
 8001666:	4413      	add	r3, r2
}
 8001668:	4618      	mov	r0, r3
 800166a:	3720      	adds	r7, #32
 800166c:	46bd      	mov	sp, r7
 800166e:	bd80      	pop	{r7, pc}

08001670 <MqttDecode_PublishResp>:

int MqttDecode_PublishResp(byte* rx_buf, int rx_buf_len, byte type,
    MqttPublishResp *publish_resp)
{
 8001670:	b580      	push	{r7, lr}
 8001672:	b08c      	sub	sp, #48	; 0x30
 8001674:	af04      	add	r7, sp, #16
 8001676:	60f8      	str	r0, [r7, #12]
 8001678:	60b9      	str	r1, [r7, #8]
 800167a:	603b      	str	r3, [r7, #0]
 800167c:	4613      	mov	r3, r2
 800167e:	71fb      	strb	r3, [r7, #7]
    int header_len, remain_len;
    byte *rx_payload;

    /* Validate required arguments */
    if (rx_buf == NULL || rx_buf_len <= 0) {
 8001680:	68fb      	ldr	r3, [r7, #12]
 8001682:	2b00      	cmp	r3, #0
 8001684:	d002      	beq.n	800168c <MqttDecode_PublishResp+0x1c>
 8001686:	68bb      	ldr	r3, [r7, #8]
 8001688:	2b00      	cmp	r3, #0
 800168a:	dc02      	bgt.n	8001692 <MqttDecode_PublishResp+0x22>
        return MQTT_CODE_ERROR_BAD_ARG;
 800168c:	f04f 33ff 	mov.w	r3, #4294967295	; 0xffffffff
 8001690:	e027      	b.n	80016e2 <MqttDecode_PublishResp+0x72>
    }

    /* Decode fixed header */
    header_len = MqttDecode_FixedHeader(rx_buf, rx_buf_len, &remain_len,
 8001692:	79f9      	ldrb	r1, [r7, #7]
 8001694:	f107 0214 	add.w	r2, r7, #20
 8001698:	2300      	movs	r3, #0
 800169a:	9302      	str	r3, [sp, #8]
 800169c:	2300      	movs	r3, #0
 800169e:	9301      	str	r3, [sp, #4]
 80016a0:	2300      	movs	r3, #0
 80016a2:	9300      	str	r3, [sp, #0]
 80016a4:	460b      	mov	r3, r1
 80016a6:	68b9      	ldr	r1, [r7, #8]
 80016a8:	68f8      	ldr	r0, [r7, #12]
 80016aa:	f7ff fbb7 	bl	8000e1c <MqttDecode_FixedHeader>
 80016ae:	61f8      	str	r0, [r7, #28]
        type, NULL, NULL, NULL);
    if (header_len < 0) {
 80016b0:	69fb      	ldr	r3, [r7, #28]
 80016b2:	2b00      	cmp	r3, #0
 80016b4:	da01      	bge.n	80016ba <MqttDecode_PublishResp+0x4a>
        return header_len;
 80016b6:	69fb      	ldr	r3, [r7, #28]
 80016b8:	e013      	b.n	80016e2 <MqttDecode_PublishResp+0x72>
    }
    rx_payload = &rx_buf[header_len];
 80016ba:	69fb      	ldr	r3, [r7, #28]
 80016bc:	68fa      	ldr	r2, [r7, #12]
 80016be:	4413      	add	r3, r2
 80016c0:	61bb      	str	r3, [r7, #24]

    /* Decode variable header */
    if (publish_resp) {
 80016c2:	683b      	ldr	r3, [r7, #0]
 80016c4:	2b00      	cmp	r3, #0
 80016c6:	d009      	beq.n	80016dc <MqttDecode_PublishResp+0x6c>
        rx_payload += MqttDecode_Num(rx_payload, &publish_resp->packet_id);
 80016c8:	683b      	ldr	r3, [r7, #0]
 80016ca:	4619      	mov	r1, r3
 80016cc:	69b8      	ldr	r0, [r7, #24]
 80016ce:	f7ff fc7e 	bl	8000fce <MqttDecode_Num>
 80016d2:	4603      	mov	r3, r0
 80016d4:	461a      	mov	r2, r3
 80016d6:	69bb      	ldr	r3, [r7, #24]
 80016d8:	4413      	add	r3, r2
 80016da:	61bb      	str	r3, [r7, #24]
    }
    (void)rx_payload;

    /* Return total length of packet */
    return header_len + remain_len;
 80016dc:	697a      	ldr	r2, [r7, #20]
 80016de:	69fb      	ldr	r3, [r7, #28]
 80016e0:	4413      	add	r3, r2
}
 80016e2:	4618      	mov	r0, r3
 80016e4:	3720      	adds	r7, #32
 80016e6:	46bd      	mov	sp, r7
 80016e8:	bd80      	pop	{r7, pc}

080016ea <MqttEncode_Subscribe>:

int MqttEncode_Subscribe(byte *tx_buf, int tx_buf_len,
    MqttSubscribe *subscribe)
{
 80016ea:	b580      	push	{r7, lr}
 80016ec:	b08e      	sub	sp, #56	; 0x38
 80016ee:	af04      	add	r7, sp, #16
 80016f0:	60f8      	str	r0, [r7, #12]
 80016f2:	60b9      	str	r1, [r7, #8]
 80016f4:	607a      	str	r2, [r7, #4]
    int header_len, remain_len, i;
    byte *tx_payload;
    MqttTopic *topic;

    /* Validate required arguments */
    if (tx_buf == NULL || subscribe == NULL) {
 80016f6:	68fb      	ldr	r3, [r7, #12]
 80016f8:	2b00      	cmp	r3, #0
 80016fa:	d002      	beq.n	8001702 <MqttEncode_Subscribe+0x18>
 80016fc:	687b      	ldr	r3, [r7, #4]
 80016fe:	2b00      	cmp	r3, #0
 8001700:	d102      	bne.n	8001708 <MqttEncode_Subscribe+0x1e>
        return MQTT_CODE_ERROR_BAD_ARG;
 8001702:	f04f 33ff 	mov.w	r3, #4294967295	; 0xffffffff
 8001706:	e069      	b.n	80017dc <MqttEncode_Subscribe+0xf2>
    }

    /* Determine packet length */
    remain_len = MQTT_DATA_LEN_SIZE; /* For packet_id */
 8001708:	2302      	movs	r3, #2
 800170a:	627b      	str	r3, [r7, #36]	; 0x24
    for (i = 0; i < subscribe->topic_count; i++) {
 800170c:	2300      	movs	r3, #0
 800170e:	623b      	str	r3, [r7, #32]
 8001710:	e015      	b.n	800173e <MqttEncode_Subscribe+0x54>
                                topic = &subscribe->topics[i];
 8001712:	687b      	ldr	r3, [r7, #4]
 8001714:	689a      	ldr	r2, [r3, #8]
 8001716:	6a3b      	ldr	r3, [r7, #32]
 8001718:	00db      	lsls	r3, r3, #3
 800171a:	4413      	add	r3, r2
 800171c:	61bb      	str	r3, [r7, #24]
        remain_len += (int)XSTRLEN(topic->topic_filter) + MQTT_DATA_LEN_SIZE;
 800171e:	69bb      	ldr	r3, [r7, #24]
 8001720:	681b      	ldr	r3, [r3, #0]
 8001722:	4618      	mov	r0, r3
 8001724:	f7fe fd12 	bl	800014c <strlen>
 8001728:	4603      	mov	r3, r0
 800172a:	3302      	adds	r3, #2
 800172c:	6a7a      	ldr	r2, [r7, #36]	; 0x24
 800172e:	4413      	add	r3, r2
 8001730:	627b      	str	r3, [r7, #36]	; 0x24
        remain_len++; /* For QoS */
 8001732:	6a7b      	ldr	r3, [r7, #36]	; 0x24
 8001734:	3301      	adds	r3, #1
 8001736:	627b      	str	r3, [r7, #36]	; 0x24
    for (i = 0; i < subscribe->topic_count; i++) {
 8001738:	6a3b      	ldr	r3, [r7, #32]
 800173a:	3301      	adds	r3, #1
 800173c:	623b      	str	r3, [r7, #32]
 800173e:	687b      	ldr	r3, [r7, #4]
 8001740:	685a      	ldr	r2, [r3, #4]
 8001742:	6a3b      	ldr	r3, [r7, #32]
 8001744:	429a      	cmp	r2, r3
 8001746:	dce4      	bgt.n	8001712 <MqttEncode_Subscribe+0x28>
    }

    /* Encode fixed header */
    header_len = MqttEncode_FixedHeader(tx_buf, tx_buf_len, remain_len,
 8001748:	2300      	movs	r3, #0
 800174a:	9302      	str	r3, [sp, #8]
 800174c:	2301      	movs	r3, #1
 800174e:	9301      	str	r3, [sp, #4]
 8001750:	2300      	movs	r3, #0
 8001752:	9300      	str	r3, [sp, #0]
 8001754:	2308      	movs	r3, #8
 8001756:	6a7a      	ldr	r2, [r7, #36]	; 0x24
 8001758:	68b9      	ldr	r1, [r7, #8]
 800175a:	68f8      	ldr	r0, [r7, #12]
 800175c:	f7ff fb17 	bl	8000d8e <MqttEncode_FixedHeader>
 8001760:	6178      	str	r0, [r7, #20]
        MQTT_PACKET_TYPE_SUBSCRIBE, 0, MQTT_QOS_1, 0);
    if (header_len < 0) {
 8001762:	697b      	ldr	r3, [r7, #20]
 8001764:	2b00      	cmp	r3, #0
 8001766:	da01      	bge.n	800176c <MqttEncode_Subscribe+0x82>
        return header_len;
 8001768:	697b      	ldr	r3, [r7, #20]
 800176a:	e037      	b.n	80017dc <MqttEncode_Subscribe+0xf2>
    }
    tx_payload = &tx_buf[header_len];
 800176c:	697b      	ldr	r3, [r7, #20]
 800176e:	68fa      	ldr	r2, [r7, #12]
 8001770:	4413      	add	r3, r2
 8001772:	61fb      	str	r3, [r7, #28]

    /* Encode variable header */
    tx_payload += MqttEncode_Num(&tx_buf[header_len], subscribe->packet_id);
 8001774:	697b      	ldr	r3, [r7, #20]
 8001776:	68fa      	ldr	r2, [r7, #12]
 8001778:	441a      	add	r2, r3
 800177a:	687b      	ldr	r3, [r7, #4]
 800177c:	885b      	ldrh	r3, [r3, #2]
 800177e:	4619      	mov	r1, r3
 8001780:	4610      	mov	r0, r2
 8001782:	f7ff fc44 	bl	800100e <MqttEncode_Num>
 8001786:	4603      	mov	r3, r0
 8001788:	461a      	mov	r2, r3
 800178a:	69fb      	ldr	r3, [r7, #28]
 800178c:	4413      	add	r3, r2
 800178e:	61fb      	str	r3, [r7, #28]

    /* Encode payload */
    for (i = 0; i < subscribe->topic_count; i++) {
 8001790:	2300      	movs	r3, #0
 8001792:	623b      	str	r3, [r7, #32]
 8001794:	e01a      	b.n	80017cc <MqttEncode_Subscribe+0xe2>
        topic = &subscribe->topics[i];
 8001796:	687b      	ldr	r3, [r7, #4]
 8001798:	689a      	ldr	r2, [r3, #8]
 800179a:	6a3b      	ldr	r3, [r7, #32]
 800179c:	00db      	lsls	r3, r3, #3
 800179e:	4413      	add	r3, r2
 80017a0:	61bb      	str	r3, [r7, #24]
        tx_payload += MqttEncode_String(tx_payload, topic->topic_filter);
 80017a2:	69bb      	ldr	r3, [r7, #24]
 80017a4:	681b      	ldr	r3, [r3, #0]
 80017a6:	4619      	mov	r1, r3
 80017a8:	69f8      	ldr	r0, [r7, #28]
 80017aa:	f7ff fc6c 	bl	8001086 <MqttEncode_String>
 80017ae:	4603      	mov	r3, r0
 80017b0:	461a      	mov	r2, r3
 80017b2:	69fb      	ldr	r3, [r7, #28]
 80017b4:	4413      	add	r3, r2
 80017b6:	61fb      	str	r3, [r7, #28]
        *tx_payload = topic->qos;
 80017b8:	69bb      	ldr	r3, [r7, #24]
 80017ba:	791a      	ldrb	r2, [r3, #4]
 80017bc:	69fb      	ldr	r3, [r7, #28]
 80017be:	701a      	strb	r2, [r3, #0]
        tx_payload++;
 80017c0:	69fb      	ldr	r3, [r7, #28]
 80017c2:	3301      	adds	r3, #1
 80017c4:	61fb      	str	r3, [r7, #28]
    for (i = 0; i < subscribe->topic_count; i++) {
 80017c6:	6a3b      	ldr	r3, [r7, #32]
 80017c8:	3301      	adds	r3, #1
 80017ca:	623b      	str	r3, [r7, #32]
 80017cc:	687b      	ldr	r3, [r7, #4]
 80017ce:	685a      	ldr	r2, [r3, #4]
 80017d0:	6a3b      	ldr	r3, [r7, #32]
 80017d2:	429a      	cmp	r2, r3
 80017d4:	dcdf      	bgt.n	8001796 <MqttEncode_Subscribe+0xac>
    }

    /* Return total length of packet */
    return header_len + remain_len;
 80017d6:	697a      	ldr	r2, [r7, #20]
 80017d8:	6a7b      	ldr	r3, [r7, #36]	; 0x24
 80017da:	4413      	add	r3, r2
}
 80017dc:	4618      	mov	r0, r3
 80017de:	3728      	adds	r7, #40	; 0x28
 80017e0:	46bd      	mov	sp, r7
 80017e2:	bd80      	pop	{r7, pc}

080017e4 <MqttDecode_SubscribeAck>:

int MqttDecode_SubscribeAck(byte* rx_buf, int rx_buf_len,
    MqttSubscribeAck *subscribe_ack)
{
 80017e4:	b580      	push	{r7, lr}
 80017e6:	b08c      	sub	sp, #48	; 0x30
 80017e8:	af04      	add	r7, sp, #16
 80017ea:	60f8      	str	r0, [r7, #12]
 80017ec:	60b9      	str	r1, [r7, #8]
 80017ee:	607a      	str	r2, [r7, #4]
    int header_len, remain_len;
    byte *rx_payload;

    /* Validate required arguments */
    if (rx_buf == NULL || rx_buf_len <= 0 || subscribe_ack == NULL) {
 80017f0:	68fb      	ldr	r3, [r7, #12]
 80017f2:	2b00      	cmp	r3, #0
 80017f4:	d005      	beq.n	8001802 <MqttDecode_SubscribeAck+0x1e>
 80017f6:	68bb      	ldr	r3, [r7, #8]
 80017f8:	2b00      	cmp	r3, #0
 80017fa:	dd02      	ble.n	8001802 <MqttDecode_SubscribeAck+0x1e>
 80017fc:	687b      	ldr	r3, [r7, #4]
 80017fe:	2b00      	cmp	r3, #0
 8001800:	d102      	bne.n	8001808 <MqttDecode_SubscribeAck+0x24>
        return MQTT_CODE_ERROR_BAD_ARG;
 8001802:	f04f 33ff 	mov.w	r3, #4294967295	; 0xffffffff
 8001806:	e029      	b.n	800185c <MqttDecode_SubscribeAck+0x78>
    }

    /* Decode fixed header */
    header_len = MqttDecode_FixedHeader(rx_buf, rx_buf_len, &remain_len,
 8001808:	f107 0214 	add.w	r2, r7, #20
 800180c:	2300      	movs	r3, #0
 800180e:	9302      	str	r3, [sp, #8]
 8001810:	2300      	movs	r3, #0
 8001812:	9301      	str	r3, [sp, #4]
 8001814:	2300      	movs	r3, #0
 8001816:	9300      	str	r3, [sp, #0]
 8001818:	2309      	movs	r3, #9
 800181a:	68b9      	ldr	r1, [r7, #8]
 800181c:	68f8      	ldr	r0, [r7, #12]
 800181e:	f7ff fafd 	bl	8000e1c <MqttDecode_FixedHeader>
 8001822:	61f8      	str	r0, [r7, #28]
        MQTT_PACKET_TYPE_SUBSCRIBE_ACK, NULL, NULL, NULL);
    if (header_len < 0) {
 8001824:	69fb      	ldr	r3, [r7, #28]
 8001826:	2b00      	cmp	r3, #0
 8001828:	da01      	bge.n	800182e <MqttDecode_SubscribeAck+0x4a>
        return header_len;
 800182a:	69fb      	ldr	r3, [r7, #28]
 800182c:	e016      	b.n	800185c <MqttDecode_SubscribeAck+0x78>
    }
    rx_payload = &rx_buf[header_len];
 800182e:	69fb      	ldr	r3, [r7, #28]
 8001830:	68fa      	ldr	r2, [r7, #12]
 8001832:	4413      	add	r3, r2
 8001834:	61bb      	str	r3, [r7, #24]

    /* Decode variable header */
    if (subscribe_ack) {
 8001836:	687b      	ldr	r3, [r7, #4]
 8001838:	2b00      	cmp	r3, #0
 800183a:	d00c      	beq.n	8001856 <MqttDecode_SubscribeAck+0x72>
        rx_payload += MqttDecode_Num(rx_payload, &subscribe_ack->packet_id);
 800183c:	687b      	ldr	r3, [r7, #4]
 800183e:	4619      	mov	r1, r3
 8001840:	69b8      	ldr	r0, [r7, #24]
 8001842:	f7ff fbc4 	bl	8000fce <MqttDecode_Num>
 8001846:	4603      	mov	r3, r0
 8001848:	461a      	mov	r2, r3
 800184a:	69bb      	ldr	r3, [r7, #24]
 800184c:	4413      	add	r3, r2
 800184e:	61bb      	str	r3, [r7, #24]
        subscribe_ack->return_codes = rx_payload; /* List of return codes */
 8001850:	687b      	ldr	r3, [r7, #4]
 8001852:	69ba      	ldr	r2, [r7, #24]
 8001854:	605a      	str	r2, [r3, #4]
    }

    /* Return total length of packet */
    return header_len + remain_len;
 8001856:	697a      	ldr	r2, [r7, #20]
 8001858:	69fb      	ldr	r3, [r7, #28]
 800185a:	4413      	add	r3, r2
}
 800185c:	4618      	mov	r0, r3
 800185e:	3720      	adds	r7, #32
 8001860:	46bd      	mov	sp, r7
 8001862:	bd80      	pop	{r7, pc}

08001864 <MqttDecode_UnsubscribeAck>:
    return header_len + remain_len;
}

int MqttDecode_UnsubscribeAck(byte *rx_buf, int rx_buf_len,
    MqttUnsubscribeAck *unsubscribe_ack)
{
 8001864:	b580      	push	{r7, lr}
 8001866:	b08c      	sub	sp, #48	; 0x30
 8001868:	af04      	add	r7, sp, #16
 800186a:	60f8      	str	r0, [r7, #12]
 800186c:	60b9      	str	r1, [r7, #8]
 800186e:	607a      	str	r2, [r7, #4]
    int header_len, remain_len;
    byte *rx_payload;

    /* Validate required arguments */
    if (rx_buf == NULL || rx_buf_len <= 0 || unsubscribe_ack == NULL) {
 8001870:	68fb      	ldr	r3, [r7, #12]
 8001872:	2b00      	cmp	r3, #0
 8001874:	d005      	beq.n	8001882 <MqttDecode_UnsubscribeAck+0x1e>
 8001876:	68bb      	ldr	r3, [r7, #8]
 8001878:	2b00      	cmp	r3, #0
 800187a:	dd02      	ble.n	8001882 <MqttDecode_UnsubscribeAck+0x1e>
 800187c:	687b      	ldr	r3, [r7, #4]
 800187e:	2b00      	cmp	r3, #0
 8001880:	d102      	bne.n	8001888 <MqttDecode_UnsubscribeAck+0x24>
        return MQTT_CODE_ERROR_BAD_ARG;
 8001882:	f04f 33ff 	mov.w	r3, #4294967295	; 0xffffffff
 8001886:	e026      	b.n	80018d6 <MqttDecode_UnsubscribeAck+0x72>
    }

    /* Decode fixed header */
    header_len = MqttDecode_FixedHeader(rx_buf, rx_buf_len, &remain_len,
 8001888:	f107 0214 	add.w	r2, r7, #20
 800188c:	2300      	movs	r3, #0
 800188e:	9302      	str	r3, [sp, #8]
 8001890:	2300      	movs	r3, #0
 8001892:	9301      	str	r3, [sp, #4]
 8001894:	2300      	movs	r3, #0
 8001896:	9300      	str	r3, [sp, #0]
 8001898:	230b      	movs	r3, #11
 800189a:	68b9      	ldr	r1, [r7, #8]
 800189c:	68f8      	ldr	r0, [r7, #12]
 800189e:	f7ff fabd 	bl	8000e1c <MqttDecode_FixedHeader>
 80018a2:	61f8      	str	r0, [r7, #28]
        MQTT_PACKET_TYPE_UNSUBSCRIBE_ACK, NULL, NULL, NULL);
    if (header_len < 0) {
 80018a4:	69fb      	ldr	r3, [r7, #28]
 80018a6:	2b00      	cmp	r3, #0
 80018a8:	da01      	bge.n	80018ae <MqttDecode_UnsubscribeAck+0x4a>
        return header_len;
 80018aa:	69fb      	ldr	r3, [r7, #28]
 80018ac:	e013      	b.n	80018d6 <MqttDecode_UnsubscribeAck+0x72>
    }
    rx_payload = &rx_buf[header_len];
 80018ae:	69fb      	ldr	r3, [r7, #28]
 80018b0:	68fa      	ldr	r2, [r7, #12]
 80018b2:	4413      	add	r3, r2
 80018b4:	61bb      	str	r3, [r7, #24]

    /* Decode variable header */
    if (unsubscribe_ack) {
 80018b6:	687b      	ldr	r3, [r7, #4]
 80018b8:	2b00      	cmp	r3, #0
 80018ba:	d009      	beq.n	80018d0 <MqttDecode_UnsubscribeAck+0x6c>
        rx_payload += MqttDecode_Num(rx_payload, &unsubscribe_ack->packet_id);
 80018bc:	687b      	ldr	r3, [r7, #4]
 80018be:	4619      	mov	r1, r3
 80018c0:	69b8      	ldr	r0, [r7, #24]
 80018c2:	f7ff fb84 	bl	8000fce <MqttDecode_Num>
 80018c6:	4603      	mov	r3, r0
 80018c8:	461a      	mov	r2, r3
 80018ca:	69bb      	ldr	r3, [r7, #24]
 80018cc:	4413      	add	r3, r2
 80018ce:	61bb      	str	r3, [r7, #24]
    }
    (void)rx_payload;

    /* Return total length of packet */
    return header_len + remain_len;
 80018d0:	697a      	ldr	r2, [r7, #20]
 80018d2:	69fb      	ldr	r3, [r7, #28]
 80018d4:	4413      	add	r3, r2
}
 80018d6:	4618      	mov	r0, r3
 80018d8:	3720      	adds	r7, #32
 80018da:	46bd      	mov	sp, r7
 80018dc:	bd80      	pop	{r7, pc}

080018de <MqttDecode_Ping>:
    /* Return total length of packet */
    return header_len + remain_len;
}

int MqttDecode_Ping(byte *rx_buf, int rx_buf_len)
{
 80018de:	b580      	push	{r7, lr}
 80018e0:	b088      	sub	sp, #32
 80018e2:	af04      	add	r7, sp, #16
 80018e4:	6078      	str	r0, [r7, #4]
 80018e6:	6039      	str	r1, [r7, #0]
    int header_len, remain_len;

    /* Validate required arguments */
    if (rx_buf == NULL || rx_buf_len <= 0) {
 80018e8:	687b      	ldr	r3, [r7, #4]
 80018ea:	2b00      	cmp	r3, #0
 80018ec:	d002      	beq.n	80018f4 <MqttDecode_Ping+0x16>
 80018ee:	683b      	ldr	r3, [r7, #0]
 80018f0:	2b00      	cmp	r3, #0
 80018f2:	dc02      	bgt.n	80018fa <MqttDecode_Ping+0x1c>
        return MQTT_CODE_ERROR_BAD_ARG;
 80018f4:	f04f 33ff 	mov.w	r3, #4294967295	; 0xffffffff
 80018f8:	e015      	b.n	8001926 <MqttDecode_Ping+0x48>
    }

    /* Decode fixed header */
    header_len = MqttDecode_FixedHeader(rx_buf, rx_buf_len, &remain_len,
 80018fa:	f107 0208 	add.w	r2, r7, #8
 80018fe:	2300      	movs	r3, #0
 8001900:	9302      	str	r3, [sp, #8]
 8001902:	2300      	movs	r3, #0
 8001904:	9301      	str	r3, [sp, #4]
 8001906:	2300      	movs	r3, #0
 8001908:	9300      	str	r3, [sp, #0]
 800190a:	230d      	movs	r3, #13
 800190c:	6839      	ldr	r1, [r7, #0]
 800190e:	6878      	ldr	r0, [r7, #4]
 8001910:	f7ff fa84 	bl	8000e1c <MqttDecode_FixedHeader>
 8001914:	60f8      	str	r0, [r7, #12]
        MQTT_PACKET_TYPE_PING_RESP, NULL, NULL, NULL);
    if (header_len < 0) {
 8001916:	68fb      	ldr	r3, [r7, #12]
 8001918:	2b00      	cmp	r3, #0
 800191a:	da01      	bge.n	8001920 <MqttDecode_Ping+0x42>
        return header_len;
 800191c:	68fb      	ldr	r3, [r7, #12]
 800191e:	e002      	b.n	8001926 <MqttDecode_Ping+0x48>
    }

    /* Return total length of packet */
    return header_len + remain_len;
 8001920:	68ba      	ldr	r2, [r7, #8]
 8001922:	68fb      	ldr	r3, [r7, #12]
 8001924:	4413      	add	r3, r2
}
 8001926:	4618      	mov	r0, r3
 8001928:	3710      	adds	r7, #16
 800192a:	46bd      	mov	sp, r7
 800192c:	bd80      	pop	{r7, pc}

0800192e <MqttPacket_Write>:
    return header_len;
}


int MqttPacket_Write(MqttClient *client, byte* tx_buf, int tx_buf_len)
{
 800192e:	b580      	push	{r7, lr}
 8001930:	b086      	sub	sp, #24
 8001932:	af00      	add	r7, sp, #0
 8001934:	60f8      	str	r0, [r7, #12]
 8001936:	60b9      	str	r1, [r7, #8]
 8001938:	607a      	str	r2, [r7, #4]
    int rc;
    rc = MqttSocket_Write(client, tx_buf, tx_buf_len, client->cmd_timeout_ms);
 800193a:	68fb      	ldr	r3, [r7, #12]
 800193c:	685b      	ldr	r3, [r3, #4]
 800193e:	687a      	ldr	r2, [r7, #4]
 8001940:	68b9      	ldr	r1, [r7, #8]
 8001942:	68f8      	ldr	r0, [r7, #12]
 8001944:	f000 f8e9 	bl	8001b1a <MqttSocket_Write>
 8001948:	6178      	str	r0, [r7, #20]
    return rc;
 800194a:	697b      	ldr	r3, [r7, #20]
}
 800194c:	4618      	mov	r0, r3
 800194e:	3718      	adds	r7, #24
 8001950:	46bd      	mov	sp, r7
 8001952:	bd80      	pop	{r7, pc}

08001954 <MqttPacket_Read>:

/* Read return code is length when > 0 */
int MqttPacket_Read(MqttClient *client, byte* rx_buf, int rx_buf_len,
    int timeout_ms)
{
 8001954:	b580      	push	{r7, lr}
 8001956:	b088      	sub	sp, #32
 8001958:	af00      	add	r7, sp, #0
 800195a:	60f8      	str	r0, [r7, #12]
 800195c:	60b9      	str	r1, [r7, #8]
 800195e:	607a      	str	r2, [r7, #4]
 8001960:	603b      	str	r3, [r7, #0]
    int rc, len, remain_read = 0;
 8001962:	2300      	movs	r3, #0
 8001964:	61fb      	str	r3, [r7, #28]
    MqttPacket* header = (MqttPacket*)rx_buf;
 8001966:	68bb      	ldr	r3, [r7, #8]
 8001968:	61bb      	str	r3, [r7, #24]

    switch (client->packet.stat)
 800196a:	68fb      	ldr	r3, [r7, #12]
 800196c:	7f1b      	ldrb	r3, [r3, #28]
 800196e:	2b01      	cmp	r3, #1
 8001970:	d01e      	beq.n	80019b0 <MqttPacket_Read+0x5c>
 8001972:	2b02      	cmp	r3, #2
 8001974:	d057      	beq.n	8001a26 <MqttPacket_Read+0xd2>
 8001976:	2b00      	cmp	r3, #0
 8001978:	d17e      	bne.n	8001a78 <MqttPacket_Read+0x124>
    {
        case MQTT_PK_BEGIN:
        {
            client->packet.header_len = 2;
 800197a:	68fb      	ldr	r3, [r7, #12]
 800197c:	2202      	movs	r2, #2
 800197e:	621a      	str	r2, [r3, #32]
            client->packet.remain_len = 0;
 8001980:	68fb      	ldr	r3, [r7, #12]
 8001982:	2200      	movs	r2, #0
 8001984:	625a      	str	r2, [r3, #36]	; 0x24

            /* Read fix header portion */
            rc = MqttSocket_Read(client, rx_buf, client->packet.header_len, timeout_ms);
 8001986:	68fb      	ldr	r3, [r7, #12]
 8001988:	6a1a      	ldr	r2, [r3, #32]
 800198a:	683b      	ldr	r3, [r7, #0]
 800198c:	68b9      	ldr	r1, [r7, #8]
 800198e:	68f8      	ldr	r0, [r7, #12]
 8001990:	f000 f92a 	bl	8001be8 <MqttSocket_Read>
 8001994:	6178      	str	r0, [r7, #20]
            if (rc < 0) {
 8001996:	697b      	ldr	r3, [r7, #20]
 8001998:	2b00      	cmp	r3, #0
 800199a:	da01      	bge.n	80019a0 <MqttPacket_Read+0x4c>
                return rc;
 800199c:	697b      	ldr	r3, [r7, #20]
 800199e:	e072      	b.n	8001a86 <MqttPacket_Read+0x132>
            }
            else if (rc != client->packet.header_len) {
 80019a0:	68fb      	ldr	r3, [r7, #12]
 80019a2:	6a1a      	ldr	r2, [r3, #32]
 80019a4:	697b      	ldr	r3, [r7, #20]
 80019a6:	429a      	cmp	r2, r3
 80019a8:	d002      	beq.n	80019b0 <MqttPacket_Read+0x5c>
                return MQTT_CODE_ERROR_NETWORK;
 80019aa:	f06f 0307 	mvn.w	r3, #7
 80019ae:	e06a      	b.n	8001a86 <MqttPacket_Read+0x132>
            FALL_THROUGH;
        }

        case MQTT_PK_READ_HEAD:
        {
            client->packet.stat = MQTT_PK_READ_HEAD;
 80019b0:	68fb      	ldr	r3, [r7, #12]
 80019b2:	2201      	movs	r2, #1
 80019b4:	771a      	strb	r2, [r3, #28]

            do {
                /* Try and decode remaining length */
                rc = MqttDecode_RemainLen(header, client->packet.header_len, &client->packet.remain_len);
 80019b6:	68fb      	ldr	r3, [r7, #12]
 80019b8:	6a19      	ldr	r1, [r3, #32]
 80019ba:	68fb      	ldr	r3, [r7, #12]
 80019bc:	3324      	adds	r3, #36	; 0x24
 80019be:	461a      	mov	r2, r3
 80019c0:	69b8      	ldr	r0, [r7, #24]
 80019c2:	f7ff fa79 	bl	8000eb8 <MqttDecode_RemainLen>
 80019c6:	6178      	str	r0, [r7, #20]
                if (rc < 0) { /* Indicates error */
 80019c8:	697b      	ldr	r3, [r7, #20]
 80019ca:	2b00      	cmp	r3, #0
 80019cc:	da01      	bge.n	80019d2 <MqttPacket_Read+0x7e>
                    return rc;
 80019ce:	697b      	ldr	r3, [r7, #20]
 80019d0:	e059      	b.n	8001a86 <MqttPacket_Read+0x132>
                }
                /* Indicates decode success and rc is len of header */
                else if (rc > 0) {
 80019d2:	697b      	ldr	r3, [r7, #20]
 80019d4:	2b00      	cmp	r3, #0
 80019d6:	dd03      	ble.n	80019e0 <MqttPacket_Read+0x8c>
                    client->packet.header_len = rc;
 80019d8:	68fb      	ldr	r3, [r7, #12]
 80019da:	697a      	ldr	r2, [r7, #20]
 80019dc:	621a      	str	r2, [r3, #32]
                    break; /* exit while */
 80019de:	e022      	b.n	8001a26 <MqttPacket_Read+0xd2>
                }

                /* Read next byte and try decode again */
                len = 1;
 80019e0:	2301      	movs	r3, #1
 80019e2:	613b      	str	r3, [r7, #16]
                rc = MqttSocket_Read(client, &rx_buf[client->packet.header_len], len, timeout_ms);
 80019e4:	68fb      	ldr	r3, [r7, #12]
 80019e6:	6a1b      	ldr	r3, [r3, #32]
 80019e8:	461a      	mov	r2, r3
 80019ea:	68bb      	ldr	r3, [r7, #8]
 80019ec:	1899      	adds	r1, r3, r2
 80019ee:	683b      	ldr	r3, [r7, #0]
 80019f0:	693a      	ldr	r2, [r7, #16]
 80019f2:	68f8      	ldr	r0, [r7, #12]
 80019f4:	f000 f8f8 	bl	8001be8 <MqttSocket_Read>
 80019f8:	6178      	str	r0, [r7, #20]
                if (rc < 0) {
 80019fa:	697b      	ldr	r3, [r7, #20]
 80019fc:	2b00      	cmp	r3, #0
 80019fe:	da01      	bge.n	8001a04 <MqttPacket_Read+0xb0>
                    return rc;
 8001a00:	697b      	ldr	r3, [r7, #20]
 8001a02:	e040      	b.n	8001a86 <MqttPacket_Read+0x132>
                }
                else if (rc != len) {
 8001a04:	697a      	ldr	r2, [r7, #20]
 8001a06:	693b      	ldr	r3, [r7, #16]
 8001a08:	429a      	cmp	r2, r3
 8001a0a:	d002      	beq.n	8001a12 <MqttPacket_Read+0xbe>
                    return MQTT_CODE_ERROR_NETWORK;
 8001a0c:	f06f 0307 	mvn.w	r3, #7
 8001a10:	e039      	b.n	8001a86 <MqttPacket_Read+0x132>
                }
                client->packet.header_len += len;
 8001a12:	68fb      	ldr	r3, [r7, #12]
 8001a14:	6a1a      	ldr	r2, [r3, #32]
 8001a16:	693b      	ldr	r3, [r7, #16]
 8001a18:	441a      	add	r2, r3
 8001a1a:	68fb      	ldr	r3, [r7, #12]
 8001a1c:	621a      	str	r2, [r3, #32]

            } while (client->packet.header_len < MQTT_PACKET_MAX_SIZE);
 8001a1e:	68fb      	ldr	r3, [r7, #12]
 8001a20:	6a1b      	ldr	r3, [r3, #32]
 8001a22:	2b04      	cmp	r3, #4
 8001a24:	ddc7      	ble.n	80019b6 <MqttPacket_Read+0x62>
            FALL_THROUGH;
        }

        case MQTT_PK_READ:
        {
            client->packet.stat = MQTT_PK_READ;
 8001a26:	68fb      	ldr	r3, [r7, #12]
 8001a28:	2202      	movs	r2, #2
 8001a2a:	771a      	strb	r2, [r3, #28]

            /* Make sure it does not overflow rx_buf */
            if (client->packet.remain_len > (rx_buf_len - client->packet.header_len)) {
 8001a2c:	68fb      	ldr	r3, [r7, #12]
 8001a2e:	6a5a      	ldr	r2, [r3, #36]	; 0x24
 8001a30:	68fb      	ldr	r3, [r7, #12]
 8001a32:	6a1b      	ldr	r3, [r3, #32]
 8001a34:	6879      	ldr	r1, [r7, #4]
 8001a36:	1acb      	subs	r3, r1, r3
 8001a38:	429a      	cmp	r2, r3
 8001a3a:	dd05      	ble.n	8001a48 <MqttPacket_Read+0xf4>
                client->packet.remain_len = rx_buf_len - client->packet.header_len;
 8001a3c:	68fb      	ldr	r3, [r7, #12]
 8001a3e:	6a1b      	ldr	r3, [r3, #32]
 8001a40:	687a      	ldr	r2, [r7, #4]
 8001a42:	1ad2      	subs	r2, r2, r3
 8001a44:	68fb      	ldr	r3, [r7, #12]
 8001a46:	625a      	str	r2, [r3, #36]	; 0x24
            }

            /* Read remaining */
            if (client->packet.remain_len > 0) {
 8001a48:	68fb      	ldr	r3, [r7, #12]
 8001a4a:	6a5b      	ldr	r3, [r3, #36]	; 0x24
 8001a4c:	2b00      	cmp	r3, #0
 8001a4e:	dd12      	ble.n	8001a76 <MqttPacket_Read+0x122>
                rc = MqttSocket_Read(client, &rx_buf[client->packet.header_len],
 8001a50:	68fb      	ldr	r3, [r7, #12]
 8001a52:	6a1b      	ldr	r3, [r3, #32]
 8001a54:	461a      	mov	r2, r3
 8001a56:	68bb      	ldr	r3, [r7, #8]
 8001a58:	1899      	adds	r1, r3, r2
 8001a5a:	68fb      	ldr	r3, [r7, #12]
 8001a5c:	6a5a      	ldr	r2, [r3, #36]	; 0x24
 8001a5e:	683b      	ldr	r3, [r7, #0]
 8001a60:	68f8      	ldr	r0, [r7, #12]
 8001a62:	f000 f8c1 	bl	8001be8 <MqttSocket_Read>
 8001a66:	6178      	str	r0, [r7, #20]
                    client->packet.remain_len, timeout_ms);
                if (rc <= 0) {
 8001a68:	697b      	ldr	r3, [r7, #20]
 8001a6a:	2b00      	cmp	r3, #0
 8001a6c:	dc01      	bgt.n	8001a72 <MqttPacket_Read+0x11e>
                    return rc;
 8001a6e:	697b      	ldr	r3, [r7, #20]
 8001a70:	e009      	b.n	8001a86 <MqttPacket_Read+0x132>
                }
                remain_read = rc;
 8001a72:	697b      	ldr	r3, [r7, #20]
 8001a74:	61fb      	str	r3, [r7, #28]
            }

            break;
 8001a76:	bf00      	nop
        }
    } /* switch (client->packet.stat) */

    /* reset state */
    client->packet.stat = MQTT_PK_BEGIN;
 8001a78:	68fb      	ldr	r3, [r7, #12]
 8001a7a:	2200      	movs	r2, #0
 8001a7c:	771a      	strb	r2, [r3, #28]

    /* Return read length */
    return client->packet.header_len + remain_read;
 8001a7e:	68fb      	ldr	r3, [r7, #12]
 8001a80:	6a1a      	ldr	r2, [r3, #32]
 8001a82:	69fb      	ldr	r3, [r7, #28]
 8001a84:	4413      	add	r3, r2
}
 8001a86:	4618      	mov	r0, r3
 8001a88:	3720      	adds	r7, #32
 8001a8a:	46bd      	mov	sp, r7
 8001a8c:	bd80      	pop	{r7, pc}

08001a8e <MqttSocket_Init>:
#endif


/* Public Functions */
int MqttSocket_Init(MqttClient *client, MqttNet *net)
{
 8001a8e:	b480      	push	{r7}
 8001a90:	b085      	sub	sp, #20
 8001a92:	af00      	add	r7, sp, #0
 8001a94:	6078      	str	r0, [r7, #4]
 8001a96:	6039      	str	r1, [r7, #0]
    int rc = MQTT_CODE_ERROR_BAD_ARG;
 8001a98:	f04f 33ff 	mov.w	r3, #4294967295	; 0xffffffff
 8001a9c:	60fb      	str	r3, [r7, #12]
    if (client) {
 8001a9e:	687b      	ldr	r3, [r7, #4]
 8001aa0:	2b00      	cmp	r3, #0
 8001aa2:	d01d      	beq.n	8001ae0 <MqttSocket_Init+0x52>
        client->net = net;
 8001aa4:	687b      	ldr	r3, [r7, #4]
 8001aa6:	683a      	ldr	r2, [r7, #0]
 8001aa8:	619a      	str	r2, [r3, #24]
        client->flags &= ~(MQTT_CLIENT_FLAG_IS_CONNECTED |
 8001aaa:	687b      	ldr	r3, [r7, #4]
 8001aac:	681b      	ldr	r3, [r3, #0]
 8001aae:	f023 0203 	bic.w	r2, r3, #3
 8001ab2:	687b      	ldr	r3, [r7, #4]
 8001ab4:	601a      	str	r2, [r3, #0]
        client->tls.ssl = NULL;
        client->tls.timeout_ms = client->cmd_timeout_ms;
    #endif

        /* Validate callbacks are not null! */
        if (net && net->connect && net->read && net->write && net->disconnect) {
 8001ab6:	683b      	ldr	r3, [r7, #0]
 8001ab8:	2b00      	cmp	r3, #0
 8001aba:	d011      	beq.n	8001ae0 <MqttSocket_Init+0x52>
 8001abc:	683b      	ldr	r3, [r7, #0]
 8001abe:	685b      	ldr	r3, [r3, #4]
 8001ac0:	2b00      	cmp	r3, #0
 8001ac2:	d00d      	beq.n	8001ae0 <MqttSocket_Init+0x52>
 8001ac4:	683b      	ldr	r3, [r7, #0]
 8001ac6:	689b      	ldr	r3, [r3, #8]
 8001ac8:	2b00      	cmp	r3, #0
 8001aca:	d009      	beq.n	8001ae0 <MqttSocket_Init+0x52>
 8001acc:	683b      	ldr	r3, [r7, #0]
 8001ace:	68db      	ldr	r3, [r3, #12]
 8001ad0:	2b00      	cmp	r3, #0
 8001ad2:	d005      	beq.n	8001ae0 <MqttSocket_Init+0x52>
 8001ad4:	683b      	ldr	r3, [r7, #0]
 8001ad6:	691b      	ldr	r3, [r3, #16]
 8001ad8:	2b00      	cmp	r3, #0
 8001ada:	d001      	beq.n	8001ae0 <MqttSocket_Init+0x52>
            rc = MQTT_CODE_SUCCESS;
 8001adc:	2300      	movs	r3, #0
 8001ade:	60fb      	str	r3, [r7, #12]
        }
    }
    return rc;
 8001ae0:	68fb      	ldr	r3, [r7, #12]
}
 8001ae2:	4618      	mov	r0, r3
 8001ae4:	3714      	adds	r7, #20
 8001ae6:	46bd      	mov	sp, r7
 8001ae8:	bc80      	pop	{r7}
 8001aea:	4770      	bx	lr

08001aec <MqttSocket_WriteDo>:

static int MqttSocket_WriteDo(MqttClient *client, const byte* buf, int buf_len,
    int timeout_ms)
{
 8001aec:	b590      	push	{r4, r7, lr}
 8001aee:	b087      	sub	sp, #28
 8001af0:	af00      	add	r7, sp, #0
 8001af2:	60f8      	str	r0, [r7, #12]
 8001af4:	60b9      	str	r1, [r7, #8]
 8001af6:	607a      	str	r2, [r7, #4]
 8001af8:	603b      	str	r3, [r7, #0]
        }
    }
    else
#endif /* ENABLE_MQTT_TLS */
    {
        rc = client->net->write(client->net->context, buf, buf_len,
 8001afa:	68fb      	ldr	r3, [r7, #12]
 8001afc:	699b      	ldr	r3, [r3, #24]
 8001afe:	68dc      	ldr	r4, [r3, #12]
 8001b00:	68fb      	ldr	r3, [r7, #12]
 8001b02:	699b      	ldr	r3, [r3, #24]
 8001b04:	6818      	ldr	r0, [r3, #0]
 8001b06:	683b      	ldr	r3, [r7, #0]
 8001b08:	687a      	ldr	r2, [r7, #4]
 8001b0a:	68b9      	ldr	r1, [r7, #8]
 8001b0c:	47a0      	blx	r4
 8001b0e:	6178      	str	r0, [r7, #20]
    if (rc != 0) { /* hide in non-blocking case */
        PRINTF("MqttSocket_Write: Len=%d, Rc=%d", buf_len, rc);
    }
#endif

    return rc;
 8001b10:	697b      	ldr	r3, [r7, #20]
}
 8001b12:	4618      	mov	r0, r3
 8001b14:	371c      	adds	r7, #28
 8001b16:	46bd      	mov	sp, r7
 8001b18:	bd90      	pop	{r4, r7, pc}

08001b1a <MqttSocket_Write>:

int MqttSocket_Write(MqttClient *client, const byte* buf, int buf_len,
    int timeout_ms)
{
 8001b1a:	b580      	push	{r7, lr}
 8001b1c:	b086      	sub	sp, #24
 8001b1e:	af00      	add	r7, sp, #0
 8001b20:	60f8      	str	r0, [r7, #12]
 8001b22:	60b9      	str	r1, [r7, #8]
 8001b24:	607a      	str	r2, [r7, #4]
 8001b26:	603b      	str	r3, [r7, #0]
    int rc;

    /* Validate arguments */
    if (client == NULL || client->net == NULL || client->net->write == NULL ||
 8001b28:	68fb      	ldr	r3, [r7, #12]
 8001b2a:	2b00      	cmp	r3, #0
 8001b2c:	d00e      	beq.n	8001b4c <MqttSocket_Write+0x32>
 8001b2e:	68fb      	ldr	r3, [r7, #12]
 8001b30:	699b      	ldr	r3, [r3, #24]
 8001b32:	2b00      	cmp	r3, #0
 8001b34:	d00a      	beq.n	8001b4c <MqttSocket_Write+0x32>
 8001b36:	68fb      	ldr	r3, [r7, #12]
 8001b38:	699b      	ldr	r3, [r3, #24]
 8001b3a:	68db      	ldr	r3, [r3, #12]
 8001b3c:	2b00      	cmp	r3, #0
 8001b3e:	d005      	beq.n	8001b4c <MqttSocket_Write+0x32>
 8001b40:	68bb      	ldr	r3, [r7, #8]
 8001b42:	2b00      	cmp	r3, #0
 8001b44:	d002      	beq.n	8001b4c <MqttSocket_Write+0x32>
        buf == NULL || buf_len <= 0) {
 8001b46:	687b      	ldr	r3, [r7, #4]
 8001b48:	2b00      	cmp	r3, #0
 8001b4a:	dc02      	bgt.n	8001b52 <MqttSocket_Write+0x38>
        return MQTT_CODE_ERROR_BAD_ARG;
 8001b4c:	f04f 33ff 	mov.w	r3, #4294967295	; 0xffffffff
 8001b50:	e02f      	b.n	8001bb2 <MqttSocket_Write+0x98>
    }

    /* check for buffer position overflow */
    if (client->write.pos >= buf_len) {
 8001b52:	68fb      	ldr	r3, [r7, #12]
 8001b54:	6b5a      	ldr	r2, [r3, #52]	; 0x34
 8001b56:	687b      	ldr	r3, [r7, #4]
 8001b58:	429a      	cmp	r2, r3
 8001b5a:	db02      	blt.n	8001b62 <MqttSocket_Write+0x48>
        return MQTT_CODE_ERROR_OUT_OF_BUFFER;
 8001b5c:	f06f 0301 	mvn.w	r3, #1
 8001b60:	e027      	b.n	8001bb2 <MqttSocket_Write+0x98>
        rc = MQTT_CODE_CONTINUE;
    }

#else
    do {
        rc = MqttSocket_WriteDo(client, &buf[client->write.pos],
 8001b62:	68fb      	ldr	r3, [r7, #12]
 8001b64:	6b5b      	ldr	r3, [r3, #52]	; 0x34
 8001b66:	461a      	mov	r2, r3
 8001b68:	68bb      	ldr	r3, [r7, #8]
 8001b6a:	1899      	adds	r1, r3, r2
            buf_len - client->write.pos, timeout_ms);
 8001b6c:	68fb      	ldr	r3, [r7, #12]
 8001b6e:	6b5b      	ldr	r3, [r3, #52]	; 0x34
        rc = MqttSocket_WriteDo(client, &buf[client->write.pos],
 8001b70:	687a      	ldr	r2, [r7, #4]
 8001b72:	1ad2      	subs	r2, r2, r3
 8001b74:	683b      	ldr	r3, [r7, #0]
 8001b76:	68f8      	ldr	r0, [r7, #12]
 8001b78:	f7ff ffb8 	bl	8001aec <MqttSocket_WriteDo>
 8001b7c:	6178      	str	r0, [r7, #20]
        if (rc <= 0) {
 8001b7e:	697b      	ldr	r3, [r7, #20]
 8001b80:	2b00      	cmp	r3, #0
 8001b82:	dd0b      	ble.n	8001b9c <MqttSocket_Write+0x82>
            break;
        }
        client->write.pos += rc;
 8001b84:	68fb      	ldr	r3, [r7, #12]
 8001b86:	6b5a      	ldr	r2, [r3, #52]	; 0x34
 8001b88:	697b      	ldr	r3, [r7, #20]
 8001b8a:	441a      	add	r2, r3
 8001b8c:	68fb      	ldr	r3, [r7, #12]
 8001b8e:	635a      	str	r2, [r3, #52]	; 0x34
    } while (client->write.pos < buf_len);
 8001b90:	68fb      	ldr	r3, [r7, #12]
 8001b92:	6b5a      	ldr	r2, [r3, #52]	; 0x34
 8001b94:	687b      	ldr	r3, [r7, #4]
 8001b96:	429a      	cmp	r2, r3
 8001b98:	dbe3      	blt.n	8001b62 <MqttSocket_Write+0x48>
 8001b9a:	e000      	b.n	8001b9e <MqttSocket_Write+0x84>
            break;
 8001b9c:	bf00      	nop
#endif /* WOLFMQTT_NONBLOCK */

    /* handle return code */
    if (rc > 0) {
 8001b9e:	697b      	ldr	r3, [r7, #20]
 8001ba0:	2b00      	cmp	r3, #0
 8001ba2:	dd05      	ble.n	8001bb0 <MqttSocket_Write+0x96>
        /* return length write and reset position */
        rc = client->write.pos;
 8001ba4:	68fb      	ldr	r3, [r7, #12]
 8001ba6:	6b5b      	ldr	r3, [r3, #52]	; 0x34
 8001ba8:	617b      	str	r3, [r7, #20]
        client->write.pos = 0;
 8001baa:	68fb      	ldr	r3, [r7, #12]
 8001bac:	2200      	movs	r2, #0
 8001bae:	635a      	str	r2, [r3, #52]	; 0x34
    }

    return rc;
 8001bb0:	697b      	ldr	r3, [r7, #20]
}
 8001bb2:	4618      	mov	r0, r3
 8001bb4:	3718      	adds	r7, #24
 8001bb6:	46bd      	mov	sp, r7
 8001bb8:	bd80      	pop	{r7, pc}

08001bba <MqttSocket_ReadDo>:

static int MqttSocket_ReadDo(MqttClient *client, byte* buf, int buf_len,
    int timeout_ms)
{
 8001bba:	b590      	push	{r4, r7, lr}
 8001bbc:	b087      	sub	sp, #28
 8001bbe:	af00      	add	r7, sp, #0
 8001bc0:	60f8      	str	r0, [r7, #12]
 8001bc2:	60b9      	str	r1, [r7, #8]
 8001bc4:	607a      	str	r2, [r7, #4]
 8001bc6:	603b      	str	r3, [r7, #0]
        }
    }
    else
#endif /* ENABLE_MQTT_TLS */
    {
        rc = client->net->read(client->net->context, buf, buf_len, timeout_ms);
 8001bc8:	68fb      	ldr	r3, [r7, #12]
 8001bca:	699b      	ldr	r3, [r3, #24]
 8001bcc:	689c      	ldr	r4, [r3, #8]
 8001bce:	68fb      	ldr	r3, [r7, #12]
 8001bd0:	699b      	ldr	r3, [r3, #24]
 8001bd2:	6818      	ldr	r0, [r3, #0]
 8001bd4:	683b      	ldr	r3, [r7, #0]
 8001bd6:	687a      	ldr	r2, [r7, #4]
 8001bd8:	68b9      	ldr	r1, [r7, #8]
 8001bda:	47a0      	blx	r4
 8001bdc:	6178      	str	r0, [r7, #20]
    if (rc != 0) { /* hide in non-blocking case */
        PRINTF("MqttSocket_Read: Len=%d, Rc=%d", buf_len, rc);
    }
#endif

    return rc;
 8001bde:	697b      	ldr	r3, [r7, #20]
}
 8001be0:	4618      	mov	r0, r3
 8001be2:	371c      	adds	r7, #28
 8001be4:	46bd      	mov	sp, r7
 8001be6:	bd90      	pop	{r4, r7, pc}

08001be8 <MqttSocket_Read>:

int MqttSocket_Read(MqttClient *client, byte* buf, int buf_len, int timeout_ms)
{
 8001be8:	b580      	push	{r7, lr}
 8001bea:	b086      	sub	sp, #24
 8001bec:	af00      	add	r7, sp, #0
 8001bee:	60f8      	str	r0, [r7, #12]
 8001bf0:	60b9      	str	r1, [r7, #8]
 8001bf2:	607a      	str	r2, [r7, #4]
 8001bf4:	603b      	str	r3, [r7, #0]
    int rc;

    /* Validate arguments */
    if (client == NULL || client->net == NULL || client->net->read == NULL ||
 8001bf6:	68fb      	ldr	r3, [r7, #12]
 8001bf8:	2b00      	cmp	r3, #0
 8001bfa:	d00e      	beq.n	8001c1a <MqttSocket_Read+0x32>
 8001bfc:	68fb      	ldr	r3, [r7, #12]
 8001bfe:	699b      	ldr	r3, [r3, #24]
 8001c00:	2b00      	cmp	r3, #0
 8001c02:	d00a      	beq.n	8001c1a <MqttSocket_Read+0x32>
 8001c04:	68fb      	ldr	r3, [r7, #12]
 8001c06:	699b      	ldr	r3, [r3, #24]
 8001c08:	689b      	ldr	r3, [r3, #8]
 8001c0a:	2b00      	cmp	r3, #0
 8001c0c:	d005      	beq.n	8001c1a <MqttSocket_Read+0x32>
 8001c0e:	68bb      	ldr	r3, [r7, #8]
 8001c10:	2b00      	cmp	r3, #0
 8001c12:	d002      	beq.n	8001c1a <MqttSocket_Read+0x32>
        buf == NULL || buf_len <= 0) {
 8001c14:	687b      	ldr	r3, [r7, #4]
 8001c16:	2b00      	cmp	r3, #0
 8001c18:	dc02      	bgt.n	8001c20 <MqttSocket_Read+0x38>
        return MQTT_CODE_ERROR_BAD_ARG;
 8001c1a:	f04f 33ff 	mov.w	r3, #4294967295	; 0xffffffff
 8001c1e:	e02f      	b.n	8001c80 <MqttSocket_Read+0x98>
    }

    /* check for buffer position overflow */
    if (client->read.pos >= buf_len) {
 8001c20:	68fb      	ldr	r3, [r7, #12]
 8001c22:	6ada      	ldr	r2, [r3, #44]	; 0x2c
 8001c24:	687b      	ldr	r3, [r7, #4]
 8001c26:	429a      	cmp	r2, r3
 8001c28:	db02      	blt.n	8001c30 <MqttSocket_Read+0x48>
        return MQTT_CODE_ERROR_OUT_OF_BUFFER;
 8001c2a:	f06f 0301 	mvn.w	r3, #1
 8001c2e:	e027      	b.n	8001c80 <MqttSocket_Read+0x98>
        rc = MQTT_CODE_CONTINUE;
    }

#else
    do {
        rc = MqttSocket_ReadDo(client, &buf[client->read.pos],
 8001c30:	68fb      	ldr	r3, [r7, #12]
 8001c32:	6adb      	ldr	r3, [r3, #44]	; 0x2c
 8001c34:	461a      	mov	r2, r3
 8001c36:	68bb      	ldr	r3, [r7, #8]
 8001c38:	1899      	adds	r1, r3, r2
            buf_len - client->read.pos, timeout_ms);
 8001c3a:	68fb      	ldr	r3, [r7, #12]
 8001c3c:	6adb      	ldr	r3, [r3, #44]	; 0x2c
        rc = MqttSocket_ReadDo(client, &buf[client->read.pos],
 8001c3e:	687a      	ldr	r2, [r7, #4]
 8001c40:	1ad2      	subs	r2, r2, r3
 8001c42:	683b      	ldr	r3, [r7, #0]
 8001c44:	68f8      	ldr	r0, [r7, #12]
 8001c46:	f7ff ffb8 	bl	8001bba <MqttSocket_ReadDo>
 8001c4a:	6178      	str	r0, [r7, #20]
        if (rc <= 0) {
 8001c4c:	697b      	ldr	r3, [r7, #20]
 8001c4e:	2b00      	cmp	r3, #0
 8001c50:	dd0b      	ble.n	8001c6a <MqttSocket_Read+0x82>
            break;
        }
        client->read.pos += rc;
 8001c52:	68fb      	ldr	r3, [r7, #12]
 8001c54:	6ada      	ldr	r2, [r3, #44]	; 0x2c
 8001c56:	697b      	ldr	r3, [r7, #20]
 8001c58:	441a      	add	r2, r3
 8001c5a:	68fb      	ldr	r3, [r7, #12]
 8001c5c:	62da      	str	r2, [r3, #44]	; 0x2c
    } while (client->read.pos < buf_len);
 8001c5e:	68fb      	ldr	r3, [r7, #12]
 8001c60:	6ada      	ldr	r2, [r3, #44]	; 0x2c
 8001c62:	687b      	ldr	r3, [r7, #4]
 8001c64:	429a      	cmp	r2, r3
 8001c66:	dbe3      	blt.n	8001c30 <MqttSocket_Read+0x48>
 8001c68:	e000      	b.n	8001c6c <MqttSocket_Read+0x84>
            break;
 8001c6a:	bf00      	nop
#endif /* WOLFMQTT_NONBLOCK */

    /* handle return code */
    if (rc > 0) {
 8001c6c:	697b      	ldr	r3, [r7, #20]
 8001c6e:	2b00      	cmp	r3, #0
 8001c70:	dd05      	ble.n	8001c7e <MqttSocket_Read+0x96>
        /* return length read and reset position */
        rc = client->read.pos;
 8001c72:	68fb      	ldr	r3, [r7, #12]
 8001c74:	6adb      	ldr	r3, [r3, #44]	; 0x2c
 8001c76:	617b      	str	r3, [r7, #20]
        client->read.pos = 0;
 8001c78:	68fb      	ldr	r3, [r7, #12]
 8001c7a:	2200      	movs	r2, #0
 8001c7c:	62da      	str	r2, [r3, #44]	; 0x2c
    }

    return rc;
 8001c7e:	697b      	ldr	r3, [r7, #20]
}
 8001c80:	4618      	mov	r0, r3
 8001c82:	3718      	adds	r7, #24
 8001c84:	46bd      	mov	sp, r7
 8001c86:	bd80      	pop	{r7, pc}

08001c88 <_delay_ms>:
#include "nrf24.h"
#include <string.h>
uint8_t payload_len;


void _delay_ms(int n) {
 8001c88:	b480      	push	{r7}
 8001c8a:	b085      	sub	sp, #20
 8001c8c:	af00      	add	r7, sp, #0
 8001c8e:	6078      	str	r0, [r7, #4]

	int i, j;
	j= n*1000;
 8001c90:	687b      	ldr	r3, [r7, #4]
 8001c92:	f44f 727a 	mov.w	r2, #1000	; 0x3e8
 8001c96:	fb02 f303 	mul.w	r3, r2, r3
 8001c9a:	60bb      	str	r3, [r7, #8]
	while(j--) {
 8001c9c:	e007      	b.n	8001cae <_delay_ms+0x26>
		i=2;
 8001c9e:	2302      	movs	r3, #2
 8001ca0:	60fb      	str	r3, [r7, #12]
		while(i--);
 8001ca2:	bf00      	nop
 8001ca4:	68fb      	ldr	r3, [r7, #12]
 8001ca6:	1e5a      	subs	r2, r3, #1
 8001ca8:	60fa      	str	r2, [r7, #12]
 8001caa:	2b00      	cmp	r3, #0
 8001cac:	d1fa      	bne.n	8001ca4 <_delay_ms+0x1c>
	while(j--) {
 8001cae:	68bb      	ldr	r3, [r7, #8]
 8001cb0:	1e5a      	subs	r2, r3, #1
 8001cb2:	60ba      	str	r2, [r7, #8]
 8001cb4:	2b00      	cmp	r3, #0
 8001cb6:	d1f2      	bne.n	8001c9e <_delay_ms+0x16>
	}
}
 8001cb8:	bf00      	nop
 8001cba:	3714      	adds	r7, #20
 8001cbc:	46bd      	mov	sp, r7
 8001cbe:	bc80      	pop	{r7}
 8001cc0:	4770      	bx	lr

08001cc2 <l3_receive_packet>:





bool l3_receive_packet(uint8_t *data, uint8_t * packet_buff){
 8001cc2:	b580      	push	{r7, lr}
 8001cc4:	b084      	sub	sp, #16
 8001cc6:	af00      	add	r7, sp, #0
 8001cc8:	6078      	str	r0, [r7, #4]
 8001cca:	6039      	str	r1, [r7, #0]
	if (data[H_FRM] < data[H_TOTAL]){
 8001ccc:	687b      	ldr	r3, [r7, #4]
 8001cce:	781a      	ldrb	r2, [r3, #0]
 8001cd0:	687b      	ldr	r3, [r7, #4]
 8001cd2:	3301      	adds	r3, #1
 8001cd4:	781b      	ldrb	r3, [r3, #0]
 8001cd6:	429a      	cmp	r2, r3
 8001cd8:	d21a      	bcs.n	8001d10 <l3_receive_packet+0x4e>
		uint8_t frm_nb = data[H_FRM];
 8001cda:	687b      	ldr	r3, [r7, #4]
 8001cdc:	781b      	ldrb	r3, [r3, #0]
 8001cde:	73fb      	strb	r3, [r7, #15]
		memcpy(&packet_buff[L2_DATA_SIZE * frm_nb], &data[0+ L2_HEAD_SIZE], L2_DATA_SIZE);
 8001ce0:	7bfa      	ldrb	r2, [r7, #15]
 8001ce2:	4613      	mov	r3, r2
 8001ce4:	011b      	lsls	r3, r3, #4
 8001ce6:	1a9b      	subs	r3, r3, r2
 8001ce8:	005b      	lsls	r3, r3, #1
 8001cea:	461a      	mov	r2, r3
 8001cec:	683b      	ldr	r3, [r7, #0]
 8001cee:	1898      	adds	r0, r3, r2
 8001cf0:	687b      	ldr	r3, [r7, #4]
 8001cf2:	3302      	adds	r3, #2
 8001cf4:	221e      	movs	r2, #30
 8001cf6:	4619      	mov	r1, r3
 8001cf8:	f000 fdd2 	bl	80028a0 <memcpy>
		if ((data[H_FRM]+1) == data[H_TOTAL]){
 8001cfc:	687b      	ldr	r3, [r7, #4]
 8001cfe:	781b      	ldrb	r3, [r3, #0]
 8001d00:	3301      	adds	r3, #1
 8001d02:	687a      	ldr	r2, [r7, #4]
 8001d04:	3201      	adds	r2, #1
 8001d06:	7812      	ldrb	r2, [r2, #0]
 8001d08:	4293      	cmp	r3, r2
 8001d0a:	d101      	bne.n	8001d10 <l3_receive_packet+0x4e>
			return true;
 8001d0c:	2301      	movs	r3, #1
 8001d0e:	e000      	b.n	8001d12 <l3_receive_packet+0x50>
		}
	}
	return false;
 8001d10:	2300      	movs	r3, #0
}
 8001d12:	4618      	mov	r0, r3
 8001d14:	3710      	adds	r7, #16
 8001d16:	46bd      	mov	sp, r7
 8001d18:	bd80      	pop	{r7, pc}

08001d1a <nrf24_init>:




/* init the hardware pins */
void nrf24_init() {
 8001d1a:	b580      	push	{r7, lr}
 8001d1c:	af00      	add	r7, sp, #0
	nrf24_setupPins();
 8001d1e:	f000 fadf 	bl	80022e0 <nrf24_setupPins>
	nrf24_ce_digitalWrite(LOW);
 8001d22:	2000      	movs	r0, #0
 8001d24:	f000 fae2 	bl	80022ec <nrf24_ce_digitalWrite>
	nrf24_csn_digitalWrite(HIGH);
 8001d28:	2001      	movs	r0, #1
 8001d2a:	f000 faf7 	bl	800231c <nrf24_csn_digitalWrite>
}
 8001d2e:	bf00      	nop
 8001d30:	bd80      	pop	{r7, pc}

08001d32 <nRF24_restore_defaults>:


// Set transceiver to it's initial state
// note: RX/TX pipe addresses remains untouched
void nRF24_restore_defaults(void) {
 8001d32:	b580      	push	{r7, lr}
 8001d34:	b082      	sub	sp, #8
 8001d36:	af00      	add	r7, sp, #0
	// Write to registers their initial values
	nrf24_configRegister(nRF24_REG_CONFIG, 0x08);
 8001d38:	2108      	movs	r1, #8
 8001d3a:	2000      	movs	r0, #0
 8001d3c:	f000 f9d3 	bl	80020e6 <nrf24_configRegister>
	nrf24_configRegister(nRF24_REG_EN_AA, 0x3F);
 8001d40:	213f      	movs	r1, #63	; 0x3f
 8001d42:	2001      	movs	r0, #1
 8001d44:	f000 f9cf 	bl	80020e6 <nrf24_configRegister>
	nrf24_configRegister(nRF24_REG_EN_RXADDR, 0x03);
 8001d48:	2103      	movs	r1, #3
 8001d4a:	2002      	movs	r0, #2
 8001d4c:	f000 f9cb 	bl	80020e6 <nrf24_configRegister>
	nrf24_configRegister(nRF24_REG_SETUP_AW, 0x03);
 8001d50:	2103      	movs	r1, #3
 8001d52:	2003      	movs	r0, #3
 8001d54:	f000 f9c7 	bl	80020e6 <nrf24_configRegister>
	nrf24_configRegister(nRF24_REG_SETUP_RETR, 0x03);
 8001d58:	2103      	movs	r1, #3
 8001d5a:	2004      	movs	r0, #4
 8001d5c:	f000 f9c3 	bl	80020e6 <nrf24_configRegister>
	nrf24_configRegister(nRF24_REG_RF_CH, 0x02);
 8001d60:	2102      	movs	r1, #2
 8001d62:	2005      	movs	r0, #5
 8001d64:	f000 f9bf 	bl	80020e6 <nrf24_configRegister>
	nrf24_configRegister(nRF24_REG_RF_SETUP, 0x0E);
 8001d68:	210e      	movs	r1, #14
 8001d6a:	2006      	movs	r0, #6
 8001d6c:	f000 f9bb 	bl	80020e6 <nrf24_configRegister>
	nrf24_configRegister(nRF24_REG_STATUS, 0x00);
 8001d70:	2100      	movs	r1, #0
 8001d72:	2007      	movs	r0, #7
 8001d74:	f000 f9b7 	bl	80020e6 <nrf24_configRegister>
	nrf24_configRegister(nRF24_REG_RX_PW_P0, 0x00);
 8001d78:	2100      	movs	r1, #0
 8001d7a:	2011      	movs	r0, #17
 8001d7c:	f000 f9b3 	bl	80020e6 <nrf24_configRegister>
	nrf24_configRegister(nRF24_REG_RX_PW_P1, 0x00);
 8001d80:	2100      	movs	r1, #0
 8001d82:	2012      	movs	r0, #18
 8001d84:	f000 f9af 	bl	80020e6 <nrf24_configRegister>
	nrf24_configRegister(nRF24_REG_RX_PW_P2, 0x00);
 8001d88:	2100      	movs	r1, #0
 8001d8a:	2013      	movs	r0, #19
 8001d8c:	f000 f9ab 	bl	80020e6 <nrf24_configRegister>
	nrf24_configRegister(nRF24_REG_RX_PW_P3, 0x00);
 8001d90:	2100      	movs	r1, #0
 8001d92:	2014      	movs	r0, #20
 8001d94:	f000 f9a7 	bl	80020e6 <nrf24_configRegister>
	nrf24_configRegister(nRF24_REG_RX_PW_P4, 0x00);
 8001d98:	2100      	movs	r1, #0
 8001d9a:	2015      	movs	r0, #21
 8001d9c:	f000 f9a3 	bl	80020e6 <nrf24_configRegister>
	nrf24_configRegister(nRF24_REG_RX_PW_P5, 0x00);
 8001da0:	2100      	movs	r1, #0
 8001da2:	2016      	movs	r0, #22
 8001da4:	f000 f99f 	bl	80020e6 <nrf24_configRegister>
	nrf24_configRegister(nRF24_REG_DYNPD, 0x00);
 8001da8:	2100      	movs	r1, #0
 8001daa:	201c      	movs	r0, #28
 8001dac:	f000 f99b 	bl	80020e6 <nrf24_configRegister>
	nrf24_configRegister(nRF24_REG_FEATURE, 0x00);
 8001db0:	2100      	movs	r1, #0
 8001db2:	201d      	movs	r0, #29
 8001db4:	f000 f997 	bl	80020e6 <nrf24_configRegister>

	// Clear the FIFO's
	spi_transfer(FLUSH_RX);
 8001db8:	20e2      	movs	r0, #226	; 0xe2
 8001dba:	f000 f946 	bl	800204a <spi_transfer>
    spi_transfer(FLUSH_TX);
 8001dbe:	20e1      	movs	r0, #225	; 0xe1
 8001dc0:	f000 f943 	bl	800204a <spi_transfer>

	// Clear any pending interrupt flags
	// Clear RX_DR, TX_DS and MAX_RT bits of the STATUS register
    uint8_t reg;

	nrf24_readRegister(nRF24_REG_STATUS, &reg, 1);
 8001dc4:	1dfb      	adds	r3, r7, #7
 8001dc6:	2201      	movs	r2, #1
 8001dc8:	4619      	mov	r1, r3
 8001dca:	2007      	movs	r0, #7
 8001dcc:	f000 f9ab 	bl	8002126 <nrf24_readRegister>
	reg |= nRF24_MASK_STATUS_IRQ;
 8001dd0:	79fb      	ldrb	r3, [r7, #7]
 8001dd2:	f043 0370 	orr.w	r3, r3, #112	; 0x70
 8001dd6:	b2db      	uxtb	r3, r3
 8001dd8:	71fb      	strb	r3, [r7, #7]
	//nRF24_WriteReg(nRF24_REG_STATUS, reg);
	nrf24_configRegister(nRF24_REG_STATUS, reg);
 8001dda:	79fb      	ldrb	r3, [r7, #7]
 8001ddc:	4619      	mov	r1, r3
 8001dde:	2007      	movs	r0, #7
 8001de0:	f000 f981 	bl	80020e6 <nrf24_configRegister>


}
 8001de4:	bf00      	nop
 8001de6:	3708      	adds	r7, #8
 8001de8:	46bd      	mov	sp, r7
 8001dea:	bd80      	pop	{r7, pc}

08001dec <nrf24_config>:



/* configure the module */
void nrf24_config(uint8_t channel, uint8_t pay_length) {
 8001dec:	b580      	push	{r7, lr}
 8001dee:	b082      	sub	sp, #8
 8001df0:	af00      	add	r7, sp, #0
 8001df2:	4603      	mov	r3, r0
 8001df4:	460a      	mov	r2, r1
 8001df6:	71fb      	strb	r3, [r7, #7]
 8001df8:	4613      	mov	r3, r2
 8001dfa:	71bb      	strb	r3, [r7, #6]
	/* Use static payload length ... */
	payload_len = pay_length;
 8001dfc:	4a1f      	ldr	r2, [pc, #124]	; (8001e7c <nrf24_config+0x90>)
 8001dfe:	79bb      	ldrb	r3, [r7, #6]
 8001e00:	7013      	strb	r3, [r2, #0]

	// Set RF channel
	nrf24_configRegister(RF_CH, channel);
 8001e02:	79fb      	ldrb	r3, [r7, #7]
 8001e04:	4619      	mov	r1, r3
 8001e06:	2005      	movs	r0, #5
 8001e08:	f000 f96d 	bl	80020e6 <nrf24_configRegister>

	// Set length of incoming payload
	nrf24_configRegister(RX_PW_P0, 0x00); // Auto-ACK pipe ...
 8001e0c:	2100      	movs	r1, #0
 8001e0e:	2011      	movs	r0, #17
 8001e10:	f000 f969 	bl	80020e6 <nrf24_configRegister>
	nrf24_configRegister(RX_PW_P1, payload_len); // Data payload pipe
 8001e14:	4b19      	ldr	r3, [pc, #100]	; (8001e7c <nrf24_config+0x90>)
 8001e16:	781b      	ldrb	r3, [r3, #0]
 8001e18:	4619      	mov	r1, r3
 8001e1a:	2012      	movs	r0, #18
 8001e1c:	f000 f963 	bl	80020e6 <nrf24_configRegister>
	nrf24_configRegister(RX_PW_P2, 0x00); // Pipe not used
 8001e20:	2100      	movs	r1, #0
 8001e22:	2013      	movs	r0, #19
 8001e24:	f000 f95f 	bl	80020e6 <nrf24_configRegister>
	nrf24_configRegister(RX_PW_P3, 0x00); // Pipe not used
 8001e28:	2100      	movs	r1, #0
 8001e2a:	2014      	movs	r0, #20
 8001e2c:	f000 f95b 	bl	80020e6 <nrf24_configRegister>
	nrf24_configRegister(RX_PW_P4, 0x00); // Pipe not used
 8001e30:	2100      	movs	r1, #0
 8001e32:	2015      	movs	r0, #21
 8001e34:	f000 f957 	bl	80020e6 <nrf24_configRegister>
	nrf24_configRegister(RX_PW_P5, 0x00); // Pipe not used
 8001e38:	2100      	movs	r1, #0
 8001e3a:	2016      	movs	r0, #22
 8001e3c:	f000 f953 	bl	80020e6 <nrf24_configRegister>

	// 1 Mbps, TX gain: 0dbm
	nrf24_configRegister(RF_SETUP, (1 << RF_DR_LOW) | ((0x03) << RF_PWR));
 8001e40:	2126      	movs	r1, #38	; 0x26
 8001e42:	2006      	movs	r0, #6
 8001e44:	f000 f94f 	bl	80020e6 <nrf24_configRegister>
	// CRC enable, 1 byte CRC length
	nrf24_configRegister(CONFIG, nrf24_CONFIG);
 8001e48:	2108      	movs	r1, #8
 8001e4a:	2000      	movs	r0, #0
 8001e4c:	f000 f94b 	bl	80020e6 <nrf24_configRegister>

	// Auto Acknowledgment
	nrf24_configRegister(EN_AA,
 8001e50:	2103      	movs	r1, #3
 8001e52:	2001      	movs	r0, #1
 8001e54:	f000 f947 	bl	80020e6 <nrf24_configRegister>
			(1 << ENAA_P0) | (1 << ENAA_P1) | (0 << ENAA_P2) | (0 << ENAA_P3)
					| (0 << ENAA_P4) | (0 << ENAA_P5));

	// Enable RX addresses
	nrf24_configRegister(EN_RXADDR,
 8001e58:	2103      	movs	r1, #3
 8001e5a:	2002      	movs	r0, #2
 8001e5c:	f000 f943 	bl	80020e6 <nrf24_configRegister>
			(1 << ERX_P0) | (1 << ERX_P1) | (0 << ERX_P2) | (0 << ERX_P3)
					| (0 << ERX_P4) | (0 << ERX_P5));

	// Auto retransmit delay: 1000 us and Up to 15 retransmit trials
	nrf24_configRegister(SETUP_RETR, (0x04 << ARD) | (0x0F << ARC));
 8001e60:	214f      	movs	r1, #79	; 0x4f
 8001e62:	2004      	movs	r0, #4
 8001e64:	f000 f93f 	bl	80020e6 <nrf24_configRegister>

	// Dynamic length configurations: No dynamic length
	nrf24_configRegister(DYNPD,
 8001e68:	2100      	movs	r1, #0
 8001e6a:	201c      	movs	r0, #28
 8001e6c:	f000 f93b 	bl	80020e6 <nrf24_configRegister>
			(0 << DPL_P0) | (0 << DPL_P1) | (0 << DPL_P2) | (0 << DPL_P3)
					| (0 << DPL_P4) | (0 << DPL_P5));

	// Start listening
	nrf24_powerUpRx();
 8001e70:	f000 f8c4 	bl	8001ffc <nrf24_powerUpRx>
}
 8001e74:	bf00      	nop
 8001e76:	3708      	adds	r7, #8
 8001e78:	46bd      	mov	sp, r7
 8001e7a:	bd80      	pop	{r7, pc}
 8001e7c:	20000826 	.word	0x20000826

08001e80 <nrf24_rx_address>:

/* Set the RX address */
void nrf24_rx_address(uint8_t * adr) {
 8001e80:	b580      	push	{r7, lr}
 8001e82:	b082      	sub	sp, #8
 8001e84:	af00      	add	r7, sp, #0
 8001e86:	6078      	str	r0, [r7, #4]
	nrf24_ce_digitalWrite(LOW);
 8001e88:	2000      	movs	r0, #0
 8001e8a:	f000 fa2f 	bl	80022ec <nrf24_ce_digitalWrite>
	nrf24_writeRegister(RX_ADDR_P1, adr, nrf24_ADDR_LEN);
 8001e8e:	2205      	movs	r2, #5
 8001e90:	6879      	ldr	r1, [r7, #4]
 8001e92:	200b      	movs	r0, #11
 8001e94:	f000 f966 	bl	8002164 <nrf24_writeRegister>
	nrf24_ce_digitalWrite(HIGH);
 8001e98:	2001      	movs	r0, #1
 8001e9a:	f000 fa27 	bl	80022ec <nrf24_ce_digitalWrite>
}
 8001e9e:	bf00      	nop
 8001ea0:	3708      	adds	r7, #8
 8001ea2:	46bd      	mov	sp, r7
 8001ea4:	bd80      	pop	{r7, pc}

08001ea6 <nrf24_tx_address>:
uint8_t nrf24_payload_length() {
	return payload_len;
}

/* Set the TX address */
void nrf24_tx_address(uint8_t* adr) {
 8001ea6:	b580      	push	{r7, lr}
 8001ea8:	b082      	sub	sp, #8
 8001eaa:	af00      	add	r7, sp, #0
 8001eac:	6078      	str	r0, [r7, #4]
	/* RX_ADDR_P0 must be set to the sending addr for auto ack to work. */
	nrf24_writeRegister(RX_ADDR_P0, adr, nrf24_ADDR_LEN);
 8001eae:	2205      	movs	r2, #5
 8001eb0:	6879      	ldr	r1, [r7, #4]
 8001eb2:	200a      	movs	r0, #10
 8001eb4:	f000 f956 	bl	8002164 <nrf24_writeRegister>
	nrf24_writeRegister(TX_ADDR, adr, nrf24_ADDR_LEN);
 8001eb8:	2205      	movs	r2, #5
 8001eba:	6879      	ldr	r1, [r7, #4]
 8001ebc:	2010      	movs	r0, #16
 8001ebe:	f000 f951 	bl	8002164 <nrf24_writeRegister>
}
 8001ec2:	bf00      	nop
 8001ec4:	3708      	adds	r7, #8
 8001ec6:	46bd      	mov	sp, r7
 8001ec8:	bd80      	pop	{r7, pc}

08001eca <nrf24_dataReady>:

/* Checks if data is available for reading */
/* Returns 1 if data is ready ... */
uint8_t nrf24_dataReady() {
 8001eca:	b580      	push	{r7, lr}
 8001ecc:	b082      	sub	sp, #8
 8001ece:	af00      	add	r7, sp, #0
	// See note in getData() function - just checking RX_DR isn't good enough
	uint8_t status = nrf24_getStatus();
 8001ed0:	f000 f881 	bl	8001fd6 <nrf24_getStatus>
 8001ed4:	4603      	mov	r3, r0
 8001ed6:	71fb      	strb	r3, [r7, #7]

	// We can short circuit on RX_DR, but if it's not set, we still need
	// to check the FIFO for any pending packets
	if (status & (1 << RX_DR)) {
 8001ed8:	79fb      	ldrb	r3, [r7, #7]
 8001eda:	f003 0340 	and.w	r3, r3, #64	; 0x40
 8001ede:	2b00      	cmp	r3, #0
 8001ee0:	d001      	beq.n	8001ee6 <nrf24_dataReady+0x1c>
		return 1;
 8001ee2:	2301      	movs	r3, #1
 8001ee4:	e007      	b.n	8001ef6 <nrf24_dataReady+0x2c>
	}

	return !nrf24_rxFifoEmpty();;
 8001ee6:	f000 f80a 	bl	8001efe <nrf24_rxFifoEmpty>
 8001eea:	4603      	mov	r3, r0
 8001eec:	2b00      	cmp	r3, #0
 8001eee:	bf0c      	ite	eq
 8001ef0:	2301      	moveq	r3, #1
 8001ef2:	2300      	movne	r3, #0
 8001ef4:	b2db      	uxtb	r3, r3
}
 8001ef6:	4618      	mov	r0, r3
 8001ef8:	3708      	adds	r7, #8
 8001efa:	46bd      	mov	sp, r7
 8001efc:	bd80      	pop	{r7, pc}

08001efe <nrf24_rxFifoEmpty>:

/* Checks if receive FIFO is empty or not */
uint8_t nrf24_rxFifoEmpty() {
 8001efe:	b580      	push	{r7, lr}
 8001f00:	b082      	sub	sp, #8
 8001f02:	af00      	add	r7, sp, #0
	uint8_t fifoStatus;

	nrf24_readRegister(FIFO_STATUS, &fifoStatus, 1);
 8001f04:	1dfb      	adds	r3, r7, #7
 8001f06:	2201      	movs	r2, #1
 8001f08:	4619      	mov	r1, r3
 8001f0a:	2017      	movs	r0, #23
 8001f0c:	f000 f90b 	bl	8002126 <nrf24_readRegister>

	return (fifoStatus & (1 << RX_EMPTY));
 8001f10:	79fb      	ldrb	r3, [r7, #7]
 8001f12:	f003 0301 	and.w	r3, r3, #1
 8001f16:	b2db      	uxtb	r3, r3
}
 8001f18:	4618      	mov	r0, r3
 8001f1a:	3708      	adds	r7, #8
 8001f1c:	46bd      	mov	sp, r7
 8001f1e:	bd80      	pop	{r7, pc}

08001f20 <nrf24_getData>:
	nrf24_csn_digitalWrite(HIGH);
	return status;
}

/* Reads payload bytes into data array */
void nrf24_getData(uint8_t* data) {
 8001f20:	b580      	push	{r7, lr}
 8001f22:	b082      	sub	sp, #8
 8001f24:	af00      	add	r7, sp, #0
 8001f26:	6078      	str	r0, [r7, #4]
	/* Pull down chip select */
	nrf24_csn_digitalWrite(LOW);
 8001f28:	2000      	movs	r0, #0
 8001f2a:	f000 f9f7 	bl	800231c <nrf24_csn_digitalWrite>

	/* Send cmd to read rx payload */
	spi_transfer( R_RX_PAYLOAD);
 8001f2e:	2061      	movs	r0, #97	; 0x61
 8001f30:	f000 f88b 	bl	800204a <spi_transfer>

	/* Read payload */
	nrf24_transferSync(data, data, payload_len);
 8001f34:	4b08      	ldr	r3, [pc, #32]	; (8001f58 <nrf24_getData+0x38>)
 8001f36:	781b      	ldrb	r3, [r3, #0]
 8001f38:	461a      	mov	r2, r3
 8001f3a:	6879      	ldr	r1, [r7, #4]
 8001f3c:	6878      	ldr	r0, [r7, #4]
 8001f3e:	f000 f896 	bl	800206e <nrf24_transferSync>

	/* Pull up chip select */
	nrf24_csn_digitalWrite(HIGH);
 8001f42:	2001      	movs	r0, #1
 8001f44:	f000 f9ea 	bl	800231c <nrf24_csn_digitalWrite>

	/* Reset status register */
	nrf24_configRegister(STATUS, (1 << RX_DR));
 8001f48:	2140      	movs	r1, #64	; 0x40
 8001f4a:	2007      	movs	r0, #7
 8001f4c:	f000 f8cb 	bl	80020e6 <nrf24_configRegister>
}
 8001f50:	bf00      	nop
 8001f52:	3708      	adds	r7, #8
 8001f54:	46bd      	mov	sp, r7
 8001f56:	bd80      	pop	{r7, pc}
 8001f58:	20000826 	.word	0x20000826

08001f5c <nrf24_send>:
	return rv;
}

// Sends a data package to the default address. Be sure to send the correct
// amount of bytes as configured as payload on the receiver.
void nrf24_send(uint8_t* value) {
 8001f5c:	b580      	push	{r7, lr}
 8001f5e:	b082      	sub	sp, #8
 8001f60:	af00      	add	r7, sp, #0
 8001f62:	6078      	str	r0, [r7, #4]
	/* Go to Standby-I first */
	nrf24_ce_digitalWrite(LOW);
 8001f64:	2000      	movs	r0, #0
 8001f66:	f000 f9c1 	bl	80022ec <nrf24_ce_digitalWrite>

	/* Set to transmitter mode , Power up if needed */
	nrf24_powerUpTx();
 8001f6a:	f000 f862 	bl	8002032 <nrf24_powerUpTx>
    _delay_ms(50);
 8001f6e:	2032      	movs	r0, #50	; 0x32
 8001f70:	f7ff fe8a 	bl	8001c88 <_delay_ms>
	/* Pull up chip select */
	nrf24_csn_digitalWrite(HIGH);
#endif

	/* Pull down chip select */
	nrf24_csn_digitalWrite(LOW);
 8001f74:	2000      	movs	r0, #0
 8001f76:	f000 f9d1 	bl	800231c <nrf24_csn_digitalWrite>

	/* Write cmd to write payload */
	spi_transfer(W_TX_PAYLOAD);
 8001f7a:	20a0      	movs	r0, #160	; 0xa0
 8001f7c:	f000 f865 	bl	800204a <spi_transfer>

	/* Write payload */
	nrf24_transmitSync(value, payload_len);
 8001f80:	4b0a      	ldr	r3, [pc, #40]	; (8001fac <nrf24_send+0x50>)
 8001f82:	781b      	ldrb	r3, [r3, #0]
 8001f84:	4619      	mov	r1, r3
 8001f86:	6878      	ldr	r0, [r7, #4]
 8001f88:	f000 f892 	bl	80020b0 <nrf24_transmitSync>

	/* Pull up chip select */
	nrf24_csn_digitalWrite(HIGH);
 8001f8c:	2001      	movs	r0, #1
 8001f8e:	f000 f9c5 	bl	800231c <nrf24_csn_digitalWrite>

	/* Start the transmission */
	nrf24_ce_digitalWrite(HIGH);
 8001f92:	2001      	movs	r0, #1
 8001f94:	f000 f9aa 	bl	80022ec <nrf24_ce_digitalWrite>
	while(nrf24_isSending());
 8001f98:	bf00      	nop
 8001f9a:	f000 f809 	bl	8001fb0 <nrf24_isSending>
 8001f9e:	4603      	mov	r3, r0
 8001fa0:	2b00      	cmp	r3, #0
 8001fa2:	d1fa      	bne.n	8001f9a <nrf24_send+0x3e>
}
 8001fa4:	bf00      	nop
 8001fa6:	3708      	adds	r7, #8
 8001fa8:	46bd      	mov	sp, r7
 8001faa:	bd80      	pop	{r7, pc}
 8001fac:	20000826 	.word	0x20000826

08001fb0 <nrf24_isSending>:

uint8_t nrf24_isSending() {
 8001fb0:	b580      	push	{r7, lr}
 8001fb2:	b082      	sub	sp, #8
 8001fb4:	af00      	add	r7, sp, #0
	uint8_t status;

	/* read the current status */
	status = nrf24_getStatus();
 8001fb6:	f000 f80e 	bl	8001fd6 <nrf24_getStatus>
 8001fba:	4603      	mov	r3, r0
 8001fbc:	71fb      	strb	r3, [r7, #7]

	/* if sending successful (TX_DS) or max retries exceded (MAX_RT). */
	if ((status & ((1 << TX_DS) | (1 << MAX_RT)))) {
 8001fbe:	79fb      	ldrb	r3, [r7, #7]
 8001fc0:	f003 0330 	and.w	r3, r3, #48	; 0x30
 8001fc4:	2b00      	cmp	r3, #0
 8001fc6:	d001      	beq.n	8001fcc <nrf24_isSending+0x1c>
		return 0; /* false */
 8001fc8:	2300      	movs	r3, #0
 8001fca:	e000      	b.n	8001fce <nrf24_isSending+0x1e>
	}

	return 1; /* true */
 8001fcc:	2301      	movs	r3, #1

}
 8001fce:	4618      	mov	r0, r3
 8001fd0:	3708      	adds	r7, #8
 8001fd2:	46bd      	mov	sp, r7
 8001fd4:	bd80      	pop	{r7, pc}

08001fd6 <nrf24_getStatus>:

uint8_t nrf24_getStatus() {
 8001fd6:	b580      	push	{r7, lr}
 8001fd8:	b082      	sub	sp, #8
 8001fda:	af00      	add	r7, sp, #0
	uint8_t rv;
	nrf24_csn_digitalWrite(LOW);
 8001fdc:	2000      	movs	r0, #0
 8001fde:	f000 f99d 	bl	800231c <nrf24_csn_digitalWrite>
	rv = spi_transfer(NOP);
 8001fe2:	20ff      	movs	r0, #255	; 0xff
 8001fe4:	f000 f831 	bl	800204a <spi_transfer>
 8001fe8:	4603      	mov	r3, r0
 8001fea:	71fb      	strb	r3, [r7, #7]
	nrf24_csn_digitalWrite(HIGH);
 8001fec:	2001      	movs	r0, #1
 8001fee:	f000 f995 	bl	800231c <nrf24_csn_digitalWrite>
	return rv;
 8001ff2:	79fb      	ldrb	r3, [r7, #7]
}
 8001ff4:	4618      	mov	r0, r3
 8001ff6:	3708      	adds	r7, #8
 8001ff8:	46bd      	mov	sp, r7
 8001ffa:	bd80      	pop	{r7, pc}

08001ffc <nrf24_powerUpRx>:
	else {
		return 0xFF;
	}
}

void nrf24_powerUpRx() {
 8001ffc:	b580      	push	{r7, lr}
 8001ffe:	af00      	add	r7, sp, #0
	nrf24_csn_digitalWrite(LOW);
 8002000:	2000      	movs	r0, #0
 8002002:	f000 f98b 	bl	800231c <nrf24_csn_digitalWrite>
	spi_transfer(FLUSH_RX);
 8002006:	20e2      	movs	r0, #226	; 0xe2
 8002008:	f000 f81f 	bl	800204a <spi_transfer>
	nrf24_csn_digitalWrite(HIGH);
 800200c:	2001      	movs	r0, #1
 800200e:	f000 f985 	bl	800231c <nrf24_csn_digitalWrite>

	nrf24_configRegister(STATUS, (1 << RX_DR) | (1 << TX_DS) | (1 << MAX_RT));
 8002012:	2170      	movs	r1, #112	; 0x70
 8002014:	2007      	movs	r0, #7
 8002016:	f000 f866 	bl	80020e6 <nrf24_configRegister>

	nrf24_ce_digitalWrite(LOW);
 800201a:	2000      	movs	r0, #0
 800201c:	f000 f966 	bl	80022ec <nrf24_ce_digitalWrite>
	nrf24_configRegister(CONFIG,
 8002020:	210b      	movs	r1, #11
 8002022:	2000      	movs	r0, #0
 8002024:	f000 f85f 	bl	80020e6 <nrf24_configRegister>
			nrf24_CONFIG | ((1 << PWR_UP) | (1 << PRIM_RX)));
	nrf24_ce_digitalWrite(HIGH);
 8002028:	2001      	movs	r0, #1
 800202a:	f000 f95f 	bl	80022ec <nrf24_ce_digitalWrite>
}
 800202e:	bf00      	nop
 8002030:	bd80      	pop	{r7, pc}

08002032 <nrf24_powerUpTx>:

void nrf24_powerUpTx() {
 8002032:	b580      	push	{r7, lr}
 8002034:	af00      	add	r7, sp, #0
	nrf24_configRegister(STATUS, (1 << RX_DR) | (1 << TX_DS) | (1 << MAX_RT));
 8002036:	2170      	movs	r1, #112	; 0x70
 8002038:	2007      	movs	r0, #7
 800203a:	f000 f854 	bl	80020e6 <nrf24_configRegister>

	nrf24_configRegister(CONFIG,
 800203e:	210a      	movs	r1, #10
 8002040:	2000      	movs	r0, #0
 8002042:	f000 f850 	bl	80020e6 <nrf24_configRegister>
			nrf24_CONFIG | ((1 << PWR_UP) | (0 << PRIM_RX)));
}
 8002046:	bf00      	nop
 8002048:	bd80      	pop	{r7, pc}

0800204a <spi_transfer>:
	nrf24_ce_digitalWrite(LOW);
	nrf24_configRegister(CONFIG, nrf24_CONFIG);
}

/* software spi routine */
uint8_t spi_transfer(uint8_t tx) {
 800204a:	b580      	push	{r7, lr}
 800204c:	b084      	sub	sp, #16
 800204e:	af00      	add	r7, sp, #0
 8002050:	4603      	mov	r3, r0
 8002052:	71fb      	strb	r3, [r7, #7]
	uint8_t rx = 0;
 8002054:	2300      	movs	r3, #0
 8002056:	73fb      	strb	r3, [r7, #15]

	rx = nRF24_LL_RW(tx);
 8002058:	79fb      	ldrb	r3, [r7, #7]
 800205a:	4618      	mov	r0, r3
 800205c:	f000 f91a 	bl	8002294 <nRF24_LL_RW>
 8002060:	4603      	mov	r3, r0
 8002062:	73fb      	strb	r3, [r7, #15]

	return rx;
 8002064:	7bfb      	ldrb	r3, [r7, #15]
}
 8002066:	4618      	mov	r0, r3
 8002068:	3710      	adds	r7, #16
 800206a:	46bd      	mov	sp, r7
 800206c:	bd80      	pop	{r7, pc}

0800206e <nrf24_transferSync>:

/* send and receive multiple bytes over SPI */
void nrf24_transferSync(uint8_t* dataout, uint8_t* datain, uint8_t len) {
 800206e:	b590      	push	{r4, r7, lr}
 8002070:	b087      	sub	sp, #28
 8002072:	af00      	add	r7, sp, #0
 8002074:	60f8      	str	r0, [r7, #12]
 8002076:	60b9      	str	r1, [r7, #8]
 8002078:	4613      	mov	r3, r2
 800207a:	71fb      	strb	r3, [r7, #7]
	uint8_t i;

	for (i = 0; i < len; i++) {
 800207c:	2300      	movs	r3, #0
 800207e:	75fb      	strb	r3, [r7, #23]
 8002080:	e00e      	b.n	80020a0 <nrf24_transferSync+0x32>
		datain[i] = spi_transfer(dataout[i]);
 8002082:	7dfb      	ldrb	r3, [r7, #23]
 8002084:	68ba      	ldr	r2, [r7, #8]
 8002086:	18d4      	adds	r4, r2, r3
 8002088:	7dfb      	ldrb	r3, [r7, #23]
 800208a:	68fa      	ldr	r2, [r7, #12]
 800208c:	4413      	add	r3, r2
 800208e:	781b      	ldrb	r3, [r3, #0]
 8002090:	4618      	mov	r0, r3
 8002092:	f7ff ffda 	bl	800204a <spi_transfer>
 8002096:	4603      	mov	r3, r0
 8002098:	7023      	strb	r3, [r4, #0]
	for (i = 0; i < len; i++) {
 800209a:	7dfb      	ldrb	r3, [r7, #23]
 800209c:	3301      	adds	r3, #1
 800209e:	75fb      	strb	r3, [r7, #23]
 80020a0:	7dfa      	ldrb	r2, [r7, #23]
 80020a2:	79fb      	ldrb	r3, [r7, #7]
 80020a4:	429a      	cmp	r2, r3
 80020a6:	d3ec      	bcc.n	8002082 <nrf24_transferSync+0x14>
	}

}
 80020a8:	bf00      	nop
 80020aa:	371c      	adds	r7, #28
 80020ac:	46bd      	mov	sp, r7
 80020ae:	bd90      	pop	{r4, r7, pc}

080020b0 <nrf24_transmitSync>:

/* send multiple bytes over SPI */
void nrf24_transmitSync(uint8_t* dataout, uint8_t len) {
 80020b0:	b580      	push	{r7, lr}
 80020b2:	b084      	sub	sp, #16
 80020b4:	af00      	add	r7, sp, #0
 80020b6:	6078      	str	r0, [r7, #4]
 80020b8:	460b      	mov	r3, r1
 80020ba:	70fb      	strb	r3, [r7, #3]
	uint8_t i;

	for (i = 0; i < len; i++) {
 80020bc:	2300      	movs	r3, #0
 80020be:	73fb      	strb	r3, [r7, #15]
 80020c0:	e009      	b.n	80020d6 <nrf24_transmitSync+0x26>
		spi_transfer(dataout[i]);
 80020c2:	7bfb      	ldrb	r3, [r7, #15]
 80020c4:	687a      	ldr	r2, [r7, #4]
 80020c6:	4413      	add	r3, r2
 80020c8:	781b      	ldrb	r3, [r3, #0]
 80020ca:	4618      	mov	r0, r3
 80020cc:	f7ff ffbd 	bl	800204a <spi_transfer>
	for (i = 0; i < len; i++) {
 80020d0:	7bfb      	ldrb	r3, [r7, #15]
 80020d2:	3301      	adds	r3, #1
 80020d4:	73fb      	strb	r3, [r7, #15]
 80020d6:	7bfa      	ldrb	r2, [r7, #15]
 80020d8:	78fb      	ldrb	r3, [r7, #3]
 80020da:	429a      	cmp	r2, r3
 80020dc:	d3f1      	bcc.n	80020c2 <nrf24_transmitSync+0x12>
	}

}
 80020de:	bf00      	nop
 80020e0:	3710      	adds	r7, #16
 80020e2:	46bd      	mov	sp, r7
 80020e4:	bd80      	pop	{r7, pc}

080020e6 <nrf24_configRegister>:

/* Clocks only one byte into the given nrf24 register */
void nrf24_configRegister(uint8_t reg, uint8_t value) {
 80020e6:	b580      	push	{r7, lr}
 80020e8:	b082      	sub	sp, #8
 80020ea:	af00      	add	r7, sp, #0
 80020ec:	4603      	mov	r3, r0
 80020ee:	460a      	mov	r2, r1
 80020f0:	71fb      	strb	r3, [r7, #7]
 80020f2:	4613      	mov	r3, r2
 80020f4:	71bb      	strb	r3, [r7, #6]
	nrf24_csn_digitalWrite(LOW);
 80020f6:	2000      	movs	r0, #0
 80020f8:	f000 f910 	bl	800231c <nrf24_csn_digitalWrite>
	spi_transfer(W_REGISTER | (REGISTER_MASK & reg));
 80020fc:	79fb      	ldrb	r3, [r7, #7]
 80020fe:	f003 031f 	and.w	r3, r3, #31
 8002102:	b2db      	uxtb	r3, r3
 8002104:	f043 0320 	orr.w	r3, r3, #32
 8002108:	b2db      	uxtb	r3, r3
 800210a:	4618      	mov	r0, r3
 800210c:	f7ff ff9d 	bl	800204a <spi_transfer>
	spi_transfer(value);
 8002110:	79bb      	ldrb	r3, [r7, #6]
 8002112:	4618      	mov	r0, r3
 8002114:	f7ff ff99 	bl	800204a <spi_transfer>
	nrf24_csn_digitalWrite(HIGH);
 8002118:	2001      	movs	r0, #1
 800211a:	f000 f8ff 	bl	800231c <nrf24_csn_digitalWrite>
}
 800211e:	bf00      	nop
 8002120:	3708      	adds	r7, #8
 8002122:	46bd      	mov	sp, r7
 8002124:	bd80      	pop	{r7, pc}

08002126 <nrf24_readRegister>:

/* Read single register from nrf24 */
void nrf24_readRegister(uint8_t reg, uint8_t* value, uint8_t len) {
 8002126:	b580      	push	{r7, lr}
 8002128:	b082      	sub	sp, #8
 800212a:	af00      	add	r7, sp, #0
 800212c:	4603      	mov	r3, r0
 800212e:	6039      	str	r1, [r7, #0]
 8002130:	71fb      	strb	r3, [r7, #7]
 8002132:	4613      	mov	r3, r2
 8002134:	71bb      	strb	r3, [r7, #6]
	nrf24_csn_digitalWrite(LOW);
 8002136:	2000      	movs	r0, #0
 8002138:	f000 f8f0 	bl	800231c <nrf24_csn_digitalWrite>
	spi_transfer(R_REGISTER | (REGISTER_MASK & reg));
 800213c:	79fb      	ldrb	r3, [r7, #7]
 800213e:	f003 031f 	and.w	r3, r3, #31
 8002142:	b2db      	uxtb	r3, r3
 8002144:	4618      	mov	r0, r3
 8002146:	f7ff ff80 	bl	800204a <spi_transfer>
	nrf24_transferSync(value, value, len);
 800214a:	79bb      	ldrb	r3, [r7, #6]
 800214c:	461a      	mov	r2, r3
 800214e:	6839      	ldr	r1, [r7, #0]
 8002150:	6838      	ldr	r0, [r7, #0]
 8002152:	f7ff ff8c 	bl	800206e <nrf24_transferSync>
	nrf24_csn_digitalWrite(HIGH);
 8002156:	2001      	movs	r0, #1
 8002158:	f000 f8e0 	bl	800231c <nrf24_csn_digitalWrite>
}
 800215c:	bf00      	nop
 800215e:	3708      	adds	r7, #8
 8002160:	46bd      	mov	sp, r7
 8002162:	bd80      	pop	{r7, pc}

08002164 <nrf24_writeRegister>:

/* Write to a single register of nrf24 */
void nrf24_writeRegister(uint8_t reg, uint8_t* value, uint8_t len) {
 8002164:	b580      	push	{r7, lr}
 8002166:	b082      	sub	sp, #8
 8002168:	af00      	add	r7, sp, #0
 800216a:	4603      	mov	r3, r0
 800216c:	6039      	str	r1, [r7, #0]
 800216e:	71fb      	strb	r3, [r7, #7]
 8002170:	4613      	mov	r3, r2
 8002172:	71bb      	strb	r3, [r7, #6]
	nrf24_csn_digitalWrite(LOW);
 8002174:	2000      	movs	r0, #0
 8002176:	f000 f8d1 	bl	800231c <nrf24_csn_digitalWrite>
	spi_transfer(W_REGISTER | (REGISTER_MASK & reg));
 800217a:	79fb      	ldrb	r3, [r7, #7]
 800217c:	f003 031f 	and.w	r3, r3, #31
 8002180:	b2db      	uxtb	r3, r3
 8002182:	f043 0320 	orr.w	r3, r3, #32
 8002186:	b2db      	uxtb	r3, r3
 8002188:	4618      	mov	r0, r3
 800218a:	f7ff ff5e 	bl	800204a <spi_transfer>
	nrf24_transmitSync(value, len);
 800218e:	79bb      	ldrb	r3, [r7, #6]
 8002190:	4619      	mov	r1, r3
 8002192:	6838      	ldr	r0, [r7, #0]
 8002194:	f7ff ff8c 	bl	80020b0 <nrf24_transmitSync>
	nrf24_csn_digitalWrite(HIGH);
 8002198:	2001      	movs	r0, #1
 800219a:	f000 f8bf 	bl	800231c <nrf24_csn_digitalWrite>
}
 800219e:	bf00      	nop
 80021a0:	3708      	adds	r7, #8
 80021a2:	46bd      	mov	sp, r7
 80021a4:	bd80      	pop	{r7, pc}
	...

080021a8 <nRF24_GPIO_Init>:
#include "nrf24_hal.h"
#include "nrf24.h"

// Configure the GPIO lines of the nRF24L01 transceiver
// note: IRQ pin must be configured separately
void nRF24_GPIO_Init(void) {
 80021a8:	b580      	push	{r7, lr}
 80021aa:	b088      	sub	sp, #32
 80021ac:	af00      	add	r7, sp, #0

	SPI_InitTypeDef  SPI_InitStructure;
	GPIO_InitTypeDef GPIO_InitStructure;

	/* Enable SPI1 and GPIOA clocks */
	RCC_APB2PeriphClockCmd(RCC_APB2Periph_SPI1, ENABLE);
 80021ae:	2101      	movs	r1, #1
 80021b0:	f44f 5080 	mov.w	r0, #4096	; 0x1000
 80021b4:	f7fe f8aa 	bl	800030c <RCC_APB2PeriphClockCmd>
	RCC_APB2PeriphClockCmd(RCC_APB2Periph_GPIOA, ENABLE);
 80021b8:	2101      	movs	r1, #1
 80021ba:	2004      	movs	r0, #4
 80021bc:	f7fe f8a6 	bl	800030c <RCC_APB2PeriphClockCmd>
	RCC_APB2PeriphClockCmd(RCC_APB2Periph_GPIOB, ENABLE);
 80021c0:	2101      	movs	r1, #1
 80021c2:	2008      	movs	r0, #8
 80021c4:	f7fe f8a2 	bl	800030c <RCC_APB2PeriphClockCmd>


	//SPI - SCK, MISO, MOSI
	GPIO_InitStructure.GPIO_Pin = GPIO_Pin_5 | GPIO_Pin_6 | GPIO_Pin_7;
 80021c8:	23e0      	movs	r3, #224	; 0xe0
 80021ca:	813b      	strh	r3, [r7, #8]
	GPIO_InitStructure.GPIO_Mode = GPIO_Mode_AF_PP;
 80021cc:	2318      	movs	r3, #24
 80021ce:	72fb      	strb	r3, [r7, #11]
	GPIO_InitStructure.GPIO_Speed = GPIO_Speed_10MHz;
 80021d0:	2301      	movs	r3, #1
 80021d2:	72bb      	strb	r3, [r7, #10]
	GPIO_Init(GPIOA, &GPIO_InitStructure);
 80021d4:	f107 0308 	add.w	r3, r7, #8
 80021d8:	4619      	mov	r1, r3
 80021da:	482a      	ldr	r0, [pc, #168]	; (8002284 <nRF24_GPIO_Init+0xdc>)
 80021dc:	f7fd ffbe 	bl	800015c <GPIO_Init>



	//CS hdwr
	GPIO_InitStructure.GPIO_Pin = GPIO_Pin_6;
 80021e0:	2340      	movs	r3, #64	; 0x40
 80021e2:	813b      	strh	r3, [r7, #8]
	GPIO_InitStructure.GPIO_Mode = GPIO_Mode_Out_PP;
 80021e4:	2310      	movs	r3, #16
 80021e6:	72fb      	strb	r3, [r7, #11]
	GPIO_InitStructure.GPIO_Speed = GPIO_Speed_10MHz;
 80021e8:	2301      	movs	r3, #1
 80021ea:	72bb      	strb	r3, [r7, #10]
	GPIO_Init(GPIOB, &GPIO_InitStructure);
 80021ec:	f107 0308 	add.w	r3, r7, #8
 80021f0:	4619      	mov	r1, r3
 80021f2:	4825      	ldr	r0, [pc, #148]	; (8002288 <nRF24_GPIO_Init+0xe0>)
 80021f4:	f7fd ffb2 	bl	800015c <GPIO_Init>


	/* SPI1 configuration */
	SPI_InitStructure.SPI_Direction = SPI_Direction_2Lines_FullDuplex;
 80021f8:	2300      	movs	r3, #0
 80021fa:	81bb      	strh	r3, [r7, #12]
	SPI_InitStructure.SPI_Mode = SPI_Mode_Master;
 80021fc:	f44f 7382 	mov.w	r3, #260	; 0x104
 8002200:	81fb      	strh	r3, [r7, #14]
	SPI_InitStructure.SPI_DataSize = SPI_DataSize_8b;
 8002202:	2300      	movs	r3, #0
 8002204:	823b      	strh	r3, [r7, #16]
	SPI_InitStructure.SPI_CPOL = SPI_CPOL_Low;
 8002206:	2300      	movs	r3, #0
 8002208:	827b      	strh	r3, [r7, #18]
	SPI_InitStructure.SPI_CPHA = SPI_CPHA_1Edge;
 800220a:	2300      	movs	r3, #0
 800220c:	82bb      	strh	r3, [r7, #20]
	SPI_InitStructure.SPI_NSS = SPI_NSS_Soft;
 800220e:	f44f 7300 	mov.w	r3, #512	; 0x200
 8002212:	82fb      	strh	r3, [r7, #22]
	SPI_InitStructure.SPI_BaudRatePrescaler = SPI_BaudRatePrescaler_16;
 8002214:	2318      	movs	r3, #24
 8002216:	833b      	strh	r3, [r7, #24]
	SPI_InitStructure.SPI_FirstBit = SPI_FirstBit_MSB;
 8002218:	2300      	movs	r3, #0
 800221a:	837b      	strh	r3, [r7, #26]
	SPI_InitStructure.SPI_CRCPolynomial = 7;
 800221c:	2307      	movs	r3, #7
 800221e:	83bb      	strh	r3, [r7, #28]
	SPI_SSOutputCmd(SPI1, ENABLE);
 8002220:	2101      	movs	r1, #1
 8002222:	481a      	ldr	r0, [pc, #104]	; (800228c <nRF24_GPIO_Init+0xe4>)
 8002224:	f7fe f90c 	bl	8000440 <SPI_SSOutputCmd>
	SPI_Init(SPI1, &SPI_InitStructure);
 8002228:	f107 030c 	add.w	r3, r7, #12
 800222c:	4619      	mov	r1, r3
 800222e:	4817      	ldr	r0, [pc, #92]	; (800228c <nRF24_GPIO_Init+0xe4>)
 8002230:	f7fe f88a 	bl	8000348 <SPI_Init>

	/* Enable SPI1  */
	SPI_Cmd(SPI1, ENABLE);
 8002234:	2101      	movs	r1, #1
 8002236:	4815      	ldr	r0, [pc, #84]	; (800228c <nRF24_GPIO_Init+0xe4>)
 8002238:	f7fe f8c9 	bl	80003ce <SPI_Cmd>


	GPIO_InitTypeDef PORT;

	// Enable the nRF24L01 GPIO peripherals
	RCC->APB2ENR |= nRF24_GPIO_PERIPHERALS;
 800223c:	4a14      	ldr	r2, [pc, #80]	; (8002290 <nRF24_GPIO_Init+0xe8>)
 800223e:	4b14      	ldr	r3, [pc, #80]	; (8002290 <nRF24_GPIO_Init+0xe8>)
 8002240:	699b      	ldr	r3, [r3, #24]
 8002242:	f043 0308 	orr.w	r3, r3, #8
 8002246:	6193      	str	r3, [r2, #24]

	// Configure CSN pin
	PORT.GPIO_Mode = GPIO_Mode_Out_PP;
 8002248:	2310      	movs	r3, #16
 800224a:	71fb      	strb	r3, [r7, #7]
	PORT.GPIO_Speed = GPIO_Speed_2MHz;
 800224c:	2302      	movs	r3, #2
 800224e:	71bb      	strb	r3, [r7, #6]
	PORT.GPIO_Pin = nRF24_CSN_PIN;
 8002250:	2302      	movs	r3, #2
 8002252:	80bb      	strh	r3, [r7, #4]
	GPIO_Init(nRF24_CSN_PORT, &PORT);
 8002254:	1d3b      	adds	r3, r7, #4
 8002256:	4619      	mov	r1, r3
 8002258:	480b      	ldr	r0, [pc, #44]	; (8002288 <nRF24_GPIO_Init+0xe0>)
 800225a:	f7fd ff7f 	bl	800015c <GPIO_Init>
	nRF24_CSN_H();
 800225e:	2102      	movs	r1, #2
 8002260:	4809      	ldr	r0, [pc, #36]	; (8002288 <nRF24_GPIO_Init+0xe0>)
 8002262:	f7fe f837 	bl	80002d4 <GPIO_SetBits>

	// Configure CE pin
	PORT.GPIO_Pin = nRF24_CE_PIN;
 8002266:	2301      	movs	r3, #1
 8002268:	80bb      	strh	r3, [r7, #4]
	GPIO_Init(nRF24_CE_PORT, &PORT);
 800226a:	1d3b      	adds	r3, r7, #4
 800226c:	4619      	mov	r1, r3
 800226e:	4806      	ldr	r0, [pc, #24]	; (8002288 <nRF24_GPIO_Init+0xe0>)
 8002270:	f7fd ff74 	bl	800015c <GPIO_Init>
	nRF24_CE_L();
 8002274:	2101      	movs	r1, #1
 8002276:	4804      	ldr	r0, [pc, #16]	; (8002288 <nRF24_GPIO_Init+0xe0>)
 8002278:	f7fe f83a 	bl	80002f0 <GPIO_ResetBits>
}
 800227c:	bf00      	nop
 800227e:	3720      	adds	r7, #32
 8002280:	46bd      	mov	sp, r7
 8002282:	bd80      	pop	{r7, pc}
 8002284:	40010800 	.word	0x40010800
 8002288:	40010c00 	.word	0x40010c00
 800228c:	40013000 	.word	0x40013000
 8002290:	40021000 	.word	0x40021000

08002294 <nRF24_LL_RW>:

// Low level SPI transmit/receive function (hardware depended)
// input:
//   data - value to transmit via SPI
// return: value received from SPI
uint8_t nRF24_LL_RW(uint8_t data) {
 8002294:	b580      	push	{r7, lr}
 8002296:	b082      	sub	sp, #8
 8002298:	af00      	add	r7, sp, #0
 800229a:	4603      	mov	r3, r0
 800229c:	71fb      	strb	r3, [r7, #7]

	 // Wait until TX buffer is empty
	while (SPI_I2S_GetFlagStatus(nRF24_SPI_PORT, SPI_I2S_FLAG_TXE) == RESET);
 800229e:	bf00      	nop
 80022a0:	2102      	movs	r1, #2
 80022a2:	480e      	ldr	r0, [pc, #56]	; (80022dc <nRF24_LL_RW+0x48>)
 80022a4:	f7fe f8eb 	bl	800047e <SPI_I2S_GetFlagStatus>
 80022a8:	4603      	mov	r3, r0
 80022aa:	2b00      	cmp	r3, #0
 80022ac:	d0f8      	beq.n	80022a0 <nRF24_LL_RW+0xc>
	// Send byte to SPI (TXE cleared)
	SPI_I2S_SendData(nRF24_SPI_PORT, data);
 80022ae:	79fb      	ldrb	r3, [r7, #7]
 80022b0:	b29b      	uxth	r3, r3
 80022b2:	4619      	mov	r1, r3
 80022b4:	4809      	ldr	r0, [pc, #36]	; (80022dc <nRF24_LL_RW+0x48>)
 80022b6:	f7fe f8a9 	bl	800040c <SPI_I2S_SendData>
	// Wait while receive buffer is empty
	while (SPI_I2S_GetFlagStatus(nRF24_SPI_PORT, SPI_I2S_FLAG_RXNE) == RESET);
 80022ba:	bf00      	nop
 80022bc:	2101      	movs	r1, #1
 80022be:	4807      	ldr	r0, [pc, #28]	; (80022dc <nRF24_LL_RW+0x48>)
 80022c0:	f7fe f8dd 	bl	800047e <SPI_I2S_GetFlagStatus>
 80022c4:	4603      	mov	r3, r0
 80022c6:	2b00      	cmp	r3, #0
 80022c8:	d0f8      	beq.n	80022bc <nRF24_LL_RW+0x28>

	// Return received byte
	return (uint8_t)SPI_I2S_ReceiveData(nRF24_SPI_PORT);
 80022ca:	4804      	ldr	r0, [pc, #16]	; (80022dc <nRF24_LL_RW+0x48>)
 80022cc:	f7fe f8ac 	bl	8000428 <SPI_I2S_ReceiveData>
 80022d0:	4603      	mov	r3, r0
 80022d2:	b2db      	uxtb	r3, r3
}
 80022d4:	4618      	mov	r0, r3
 80022d6:	3708      	adds	r7, #8
 80022d8:	46bd      	mov	sp, r7
 80022da:	bd80      	pop	{r7, pc}
 80022dc:	40013000 	.word	0x40013000

080022e0 <nrf24_setupPins>:
#define clr_bit(reg,bit) reg &= ~(1<<bit)
#define check_bit(reg,bit) (reg&(1<<bit))

/* ------------------------------------------------------------------------- */
void nrf24_setupPins()
{
 80022e0:	b580      	push	{r7, lr}
 80022e2:	af00      	add	r7, sp, #0
	nRF24_GPIO_Init();
 80022e4:	f7ff ff60 	bl	80021a8 <nRF24_GPIO_Init>
}
 80022e8:	bf00      	nop
 80022ea:	bd80      	pop	{r7, pc}

080022ec <nrf24_ce_digitalWrite>:



/* ------------------------------------------------------------------------- */
void nrf24_ce_digitalWrite(uint8_t state)
{
 80022ec:	b580      	push	{r7, lr}
 80022ee:	b082      	sub	sp, #8
 80022f0:	af00      	add	r7, sp, #0
 80022f2:	4603      	mov	r3, r0
 80022f4:	71fb      	strb	r3, [r7, #7]
    if(state)
 80022f6:	79fb      	ldrb	r3, [r7, #7]
 80022f8:	2b00      	cmp	r3, #0
 80022fa:	d004      	beq.n	8002306 <nrf24_ce_digitalWrite+0x1a>
    {
    	nRF24_CE_H();
 80022fc:	2101      	movs	r1, #1
 80022fe:	4806      	ldr	r0, [pc, #24]	; (8002318 <nrf24_ce_digitalWrite+0x2c>)
 8002300:	f7fd ffe8 	bl	80002d4 <GPIO_SetBits>
    }
    else
    {
    	 nRF24_CE_L();
    }
}
 8002304:	e003      	b.n	800230e <nrf24_ce_digitalWrite+0x22>
    	 nRF24_CE_L();
 8002306:	2101      	movs	r1, #1
 8002308:	4803      	ldr	r0, [pc, #12]	; (8002318 <nrf24_ce_digitalWrite+0x2c>)
 800230a:	f7fd fff1 	bl	80002f0 <GPIO_ResetBits>
}
 800230e:	bf00      	nop
 8002310:	3708      	adds	r7, #8
 8002312:	46bd      	mov	sp, r7
 8002314:	bd80      	pop	{r7, pc}
 8002316:	bf00      	nop
 8002318:	40010c00 	.word	0x40010c00

0800231c <nrf24_csn_digitalWrite>:
/* ------------------------------------------------------------------------- */
void nrf24_csn_digitalWrite(uint8_t state)
{
 800231c:	b580      	push	{r7, lr}
 800231e:	b082      	sub	sp, #8
 8002320:	af00      	add	r7, sp, #0
 8002322:	4603      	mov	r3, r0
 8002324:	71fb      	strb	r3, [r7, #7]
    if(state)
 8002326:	79fb      	ldrb	r3, [r7, #7]
 8002328:	2b00      	cmp	r3, #0
 800232a:	d004      	beq.n	8002336 <nrf24_csn_digitalWrite+0x1a>
    {
    	nRF24_CSN_H();
 800232c:	2102      	movs	r1, #2
 800232e:	4806      	ldr	r0, [pc, #24]	; (8002348 <nrf24_csn_digitalWrite+0x2c>)
 8002330:	f7fd ffd0 	bl	80002d4 <GPIO_SetBits>
    }
    else
    {
    	nRF24_CSN_L();
    }
}
 8002334:	e003      	b.n	800233e <nrf24_csn_digitalWrite+0x22>
    	nRF24_CSN_L();
 8002336:	2102      	movs	r1, #2
 8002338:	4803      	ldr	r0, [pc, #12]	; (8002348 <nrf24_csn_digitalWrite+0x2c>)
 800233a:	f7fd ffd9 	bl	80002f0 <GPIO_ResetBits>
}
 800233e:	bf00      	nop
 8002340:	3708      	adds	r7, #8
 8002342:	46bd      	mov	sp, r7
 8002344:	bd80      	pop	{r7, pc}
 8002346:	bf00      	nop
 8002348:	40010c00 	.word	0x40010c00

0800234c <Reset_Handler>:

    .section	.text.Reset_Handler
	.weak	Reset_Handler
	.type	Reset_Handler, %function
Reset_Handler:
  ldr   sp, =_estack    /* Atollic update: set stack pointer */
 800234c:	f8df d034 	ldr.w	sp, [pc, #52]	; 8002384 <LoopFillZerobss+0x14>

/* Copy the data segment initializers from flash to SRAM */
  movs	r1, #0
 8002350:	2100      	movs	r1, #0
  b	LoopCopyDataInit
 8002352:	e003      	b.n	800235c <LoopCopyDataInit>

08002354 <CopyDataInit>:

CopyDataInit:
	ldr	r3, =_sidata
 8002354:	4b0c      	ldr	r3, [pc, #48]	; (8002388 <LoopFillZerobss+0x18>)
	ldr	r3, [r3, r1]
 8002356:	585b      	ldr	r3, [r3, r1]
	str	r3, [r0, r1]
 8002358:	5043      	str	r3, [r0, r1]
	adds	r1, r1, #4
 800235a:	3104      	adds	r1, #4

0800235c <LoopCopyDataInit>:

LoopCopyDataInit:
	ldr	r0, =_sdata
 800235c:	480b      	ldr	r0, [pc, #44]	; (800238c <LoopFillZerobss+0x1c>)
	ldr	r3, =_edata
 800235e:	4b0c      	ldr	r3, [pc, #48]	; (8002390 <LoopFillZerobss+0x20>)
	adds	r2, r0, r1
 8002360:	1842      	adds	r2, r0, r1
	cmp	r2, r3
 8002362:	429a      	cmp	r2, r3
	bcc	CopyDataInit
 8002364:	d3f6      	bcc.n	8002354 <CopyDataInit>
	ldr	r2, =_sbss
 8002366:	4a0b      	ldr	r2, [pc, #44]	; (8002394 <LoopFillZerobss+0x24>)
	b	LoopFillZerobss
 8002368:	e002      	b.n	8002370 <LoopFillZerobss>

0800236a <FillZerobss>:
/* Zero fill the bss segment. */
FillZerobss:
	movs	r3, #0
 800236a:	2300      	movs	r3, #0
	str	r3, [r2], #4
 800236c:	f842 3b04 	str.w	r3, [r2], #4

08002370 <LoopFillZerobss>:

LoopFillZerobss:
	ldr	r3, = _ebss
 8002370:	4b09      	ldr	r3, [pc, #36]	; (8002398 <LoopFillZerobss+0x28>)
	cmp	r2, r3
 8002372:	429a      	cmp	r2, r3
	bcc	FillZerobss
 8002374:	d3f9      	bcc.n	800236a <FillZerobss>

/* Call the clock system intitialization function.*/
    bl  SystemInit
 8002376:	f000 f83d 	bl	80023f4 <SystemInit>
/* Call static constructors */
    bl __libc_init_array
 800237a:	f000 fa6d 	bl	8002858 <__libc_init_array>
/* Call the application's entry point.*/
	bl	main
 800237e:	f7fe f90f 	bl	80005a0 <main>
	bx	lr
 8002382:	4770      	bx	lr
  ldr   sp, =_estack    /* Atollic update: set stack pointer */
 8002384:	20005000 	.word	0x20005000
	ldr	r3, =_sidata
 8002388:	08002940 	.word	0x08002940
	ldr	r0, =_sdata
 800238c:	20000000 	.word	0x20000000
	ldr	r3, =_edata
 8002390:	20000010 	.word	0x20000010
	ldr	r2, =_sbss
 8002394:	20000010 	.word	0x20000010
	ldr	r3, = _ebss
 8002398:	20000828 	.word	0x20000828

0800239c <ADC1_2_IRQHandler>:
 * @retval : None
*/
    .section	.text.Default_Handler,"ax",%progbits
Default_Handler:
Infinite_Loop:
	b	Infinite_Loop
 800239c:	e7fe      	b.n	800239c <ADC1_2_IRQHandler>

0800239e <NMI_Handler>:
  * @brief  This function handles NMI exception.
  * @param  None
  * @retval None
  */
void NMI_Handler(void)
{
 800239e:	b480      	push	{r7}
 80023a0:	af00      	add	r7, sp, #0
}
 80023a2:	bf00      	nop
 80023a4:	46bd      	mov	sp, r7
 80023a6:	bc80      	pop	{r7}
 80023a8:	4770      	bx	lr

080023aa <HardFault_Handler>:
  * @brief  This function handles Hard Fault exception.
  * @param  None
  * @retval None
  */
void HardFault_Handler(void)
{
 80023aa:	b480      	push	{r7}
 80023ac:	af00      	add	r7, sp, #0
  /* Go to infinite loop when Hard Fault exception occurs */
  while (1)
 80023ae:	e7fe      	b.n	80023ae <HardFault_Handler+0x4>

080023b0 <MemManage_Handler>:
  * @brief  This function handles Memory Manage exception.
  * @param  None
  * @retval None
  */
void MemManage_Handler(void)
{
 80023b0:	b480      	push	{r7}
 80023b2:	af00      	add	r7, sp, #0
  /* Go to infinite loop when Memory Manage exception occurs */
  while (1)
 80023b4:	e7fe      	b.n	80023b4 <MemManage_Handler+0x4>

080023b6 <BusFault_Handler>:
  * @brief  This function handles Bus Fault exception.
  * @param  None
  * @retval None
  */
void BusFault_Handler(void)
{
 80023b6:	b480      	push	{r7}
 80023b8:	af00      	add	r7, sp, #0
  /* Go to infinite loop when Bus Fault exception occurs */
  while (1)
 80023ba:	e7fe      	b.n	80023ba <BusFault_Handler+0x4>

080023bc <UsageFault_Handler>:
  * @brief  This function handles Usage Fault exception.
  * @param  None
  * @retval None
  */
void UsageFault_Handler(void)
{
 80023bc:	b480      	push	{r7}
 80023be:	af00      	add	r7, sp, #0
  /* Go to infinite loop when Usage Fault exception occurs */
  while (1)
 80023c0:	e7fe      	b.n	80023c0 <UsageFault_Handler+0x4>

080023c2 <SVC_Handler>:
  * @brief  This function handles SVCall exception.
  * @param  None
  * @retval None
  */
void SVC_Handler(void)
{
 80023c2:	b480      	push	{r7}
 80023c4:	af00      	add	r7, sp, #0
}
 80023c6:	bf00      	nop
 80023c8:	46bd      	mov	sp, r7
 80023ca:	bc80      	pop	{r7}
 80023cc:	4770      	bx	lr

080023ce <DebugMon_Handler>:
  * @brief  This function handles Debug Monitor exception.
  * @param  None
  * @retval None
  */
void DebugMon_Handler(void)
{
 80023ce:	b480      	push	{r7}
 80023d0:	af00      	add	r7, sp, #0
}
 80023d2:	bf00      	nop
 80023d4:	46bd      	mov	sp, r7
 80023d6:	bc80      	pop	{r7}
 80023d8:	4770      	bx	lr

080023da <PendSV_Handler>:
  * @brief  This function handles PendSVC exception.
  * @param  None
  * @retval None
  */
void PendSV_Handler(void)
{
 80023da:	b480      	push	{r7}
 80023dc:	af00      	add	r7, sp, #0
}
 80023de:	bf00      	nop
 80023e0:	46bd      	mov	sp, r7
 80023e2:	bc80      	pop	{r7}
 80023e4:	4770      	bx	lr

080023e6 <SysTick_Handler>:
  * @brief  This function handles SysTick Handler.
  * @param  None
  * @retval None
  */
void SysTick_Handler(void)
{
 80023e6:	b480      	push	{r7}
 80023e8:	af00      	add	r7, sp, #0
}
 80023ea:	bf00      	nop
 80023ec:	46bd      	mov	sp, r7
 80023ee:	bc80      	pop	{r7}
 80023f0:	4770      	bx	lr
	...

080023f4 <SystemInit>:
  * @note   This function should be used only after reset.
  * @param  None
  * @retval None
  */
void SystemInit (void)
{
 80023f4:	b580      	push	{r7, lr}
 80023f6:	af00      	add	r7, sp, #0
  /* Reset the RCC clock configuration to the default reset state(for debug purpose) */
  /* Set HSION bit */
  RCC->CR |= (uint32_t)0x00000001;
 80023f8:	4a15      	ldr	r2, [pc, #84]	; (8002450 <SystemInit+0x5c>)
 80023fa:	4b15      	ldr	r3, [pc, #84]	; (8002450 <SystemInit+0x5c>)
 80023fc:	681b      	ldr	r3, [r3, #0]
 80023fe:	f043 0301 	orr.w	r3, r3, #1
 8002402:	6013      	str	r3, [r2, #0]

  /* Reset SW, HPRE, PPRE1, PPRE2, ADCPRE and MCO bits */
#ifndef STM32F10X_CL
  RCC->CFGR &= (uint32_t)0xF8FF0000;
 8002404:	4912      	ldr	r1, [pc, #72]	; (8002450 <SystemInit+0x5c>)
 8002406:	4b12      	ldr	r3, [pc, #72]	; (8002450 <SystemInit+0x5c>)
 8002408:	685a      	ldr	r2, [r3, #4]
 800240a:	4b12      	ldr	r3, [pc, #72]	; (8002454 <SystemInit+0x60>)
 800240c:	4013      	ands	r3, r2
 800240e:	604b      	str	r3, [r1, #4]
#else
  RCC->CFGR &= (uint32_t)0xF0FF0000;
#endif /* STM32F10X_CL */   
  
  /* Reset HSEON, CSSON and PLLON bits */
  RCC->CR &= (uint32_t)0xFEF6FFFF;
 8002410:	4a0f      	ldr	r2, [pc, #60]	; (8002450 <SystemInit+0x5c>)
 8002412:	4b0f      	ldr	r3, [pc, #60]	; (8002450 <SystemInit+0x5c>)
 8002414:	681b      	ldr	r3, [r3, #0]
 8002416:	f023 7384 	bic.w	r3, r3, #17301504	; 0x1080000
 800241a:	f423 3380 	bic.w	r3, r3, #65536	; 0x10000
 800241e:	6013      	str	r3, [r2, #0]

  /* Reset HSEBYP bit */
  RCC->CR &= (uint32_t)0xFFFBFFFF;
 8002420:	4a0b      	ldr	r2, [pc, #44]	; (8002450 <SystemInit+0x5c>)
 8002422:	4b0b      	ldr	r3, [pc, #44]	; (8002450 <SystemInit+0x5c>)
 8002424:	681b      	ldr	r3, [r3, #0]
 8002426:	f423 2380 	bic.w	r3, r3, #262144	; 0x40000
 800242a:	6013      	str	r3, [r2, #0]

  /* Reset PLLSRC, PLLXTPRE, PLLMUL and USBPRE/OTGFSPRE bits */
  RCC->CFGR &= (uint32_t)0xFF80FFFF;
 800242c:	4a08      	ldr	r2, [pc, #32]	; (8002450 <SystemInit+0x5c>)
 800242e:	4b08      	ldr	r3, [pc, #32]	; (8002450 <SystemInit+0x5c>)
 8002430:	685b      	ldr	r3, [r3, #4]
 8002432:	f423 03fe 	bic.w	r3, r3, #8323072	; 0x7f0000
 8002436:	6053      	str	r3, [r2, #4]

  /* Reset CFGR2 register */
  RCC->CFGR2 = 0x00000000;      
#else
  /* Disable all interrupts and clear pending bits  */
  RCC->CIR = 0x009F0000;
 8002438:	4b05      	ldr	r3, [pc, #20]	; (8002450 <SystemInit+0x5c>)
 800243a:	f44f 021f 	mov.w	r2, #10420224	; 0x9f0000
 800243e:	609a      	str	r2, [r3, #8]
  #endif /* DATA_IN_ExtSRAM */
#endif 

  /* Configure the System clock frequency, HCLK, PCLK2 and PCLK1 prescalers */
  /* Configure the Flash Latency cycles and enable prefetch buffer */
  SetSysClock();
 8002440:	f000 f80c 	bl	800245c <SetSysClock>

#ifdef VECT_TAB_SRAM
  SCB->VTOR = SRAM_BASE | VECT_TAB_OFFSET; /* Vector Table Relocation in Internal SRAM. */
#else
  SCB->VTOR = FLASH_BASE | VECT_TAB_OFFSET; /* Vector Table Relocation in Internal FLASH. */
 8002444:	4b04      	ldr	r3, [pc, #16]	; (8002458 <SystemInit+0x64>)
 8002446:	f04f 6200 	mov.w	r2, #134217728	; 0x8000000
 800244a:	609a      	str	r2, [r3, #8]
#endif 
}
 800244c:	bf00      	nop
 800244e:	bd80      	pop	{r7, pc}
 8002450:	40021000 	.word	0x40021000
 8002454:	f8ff0000 	.word	0xf8ff0000
 8002458:	e000ed00 	.word	0xe000ed00

0800245c <SetSysClock>:
  * @brief  Configures the System clock frequency, HCLK, PCLK2 and PCLK1 prescalers.
  * @param  None
  * @retval None
  */
static void SetSysClock(void)
{
 800245c:	b580      	push	{r7, lr}
 800245e:	af00      	add	r7, sp, #0
#elif defined SYSCLK_FREQ_48MHz
  SetSysClockTo48();
#elif defined SYSCLK_FREQ_56MHz
  SetSysClockTo56();  
#elif defined SYSCLK_FREQ_72MHz
  SetSysClockTo72();
 8002460:	f000 f802 	bl	8002468 <SetSysClockTo72>
#endif
 
 /* If none of the define above is enabled, the HSI is used as System clock
    source (default after reset) */ 
}
 8002464:	bf00      	nop
 8002466:	bd80      	pop	{r7, pc}

08002468 <SetSysClockTo72>:
  * @note   This function should be used only after reset.
  * @param  None
  * @retval None
  */
static void SetSysClockTo72(void)
{
 8002468:	b480      	push	{r7}
 800246a:	b083      	sub	sp, #12
 800246c:	af00      	add	r7, sp, #0
  __IO uint32_t StartUpCounter = 0, HSEStatus = 0;
 800246e:	2300      	movs	r3, #0
 8002470:	607b      	str	r3, [r7, #4]
 8002472:	2300      	movs	r3, #0
 8002474:	603b      	str	r3, [r7, #0]
  
  /* SYSCLK, HCLK, PCLK2 and PCLK1 configuration ---------------------------*/    
  /* Enable HSE */    
  RCC->CR |= ((uint32_t)RCC_CR_HSEON);
 8002476:	4a3a      	ldr	r2, [pc, #232]	; (8002560 <SetSysClockTo72+0xf8>)
 8002478:	4b39      	ldr	r3, [pc, #228]	; (8002560 <SetSysClockTo72+0xf8>)
 800247a:	681b      	ldr	r3, [r3, #0]
 800247c:	f443 3380 	orr.w	r3, r3, #65536	; 0x10000
 8002480:	6013      	str	r3, [r2, #0]
 
  /* Wait till HSE is ready and if Time out is reached exit */
  do
  {
    HSEStatus = RCC->CR & RCC_CR_HSERDY;
 8002482:	4b37      	ldr	r3, [pc, #220]	; (8002560 <SetSysClockTo72+0xf8>)
 8002484:	681b      	ldr	r3, [r3, #0]
 8002486:	f403 3300 	and.w	r3, r3, #131072	; 0x20000
 800248a:	603b      	str	r3, [r7, #0]
    StartUpCounter++;  
 800248c:	687b      	ldr	r3, [r7, #4]
 800248e:	3301      	adds	r3, #1
 8002490:	607b      	str	r3, [r7, #4]
  } while((HSEStatus == 0) && (StartUpCounter != HSE_STARTUP_TIMEOUT));
 8002492:	683b      	ldr	r3, [r7, #0]
 8002494:	2b00      	cmp	r3, #0
 8002496:	d103      	bne.n	80024a0 <SetSysClockTo72+0x38>
 8002498:	687b      	ldr	r3, [r7, #4]
 800249a:	f5b3 6fa0 	cmp.w	r3, #1280	; 0x500
 800249e:	d1f0      	bne.n	8002482 <SetSysClockTo72+0x1a>

  if ((RCC->CR & RCC_CR_HSERDY) != RESET)
 80024a0:	4b2f      	ldr	r3, [pc, #188]	; (8002560 <SetSysClockTo72+0xf8>)
 80024a2:	681b      	ldr	r3, [r3, #0]
 80024a4:	f403 3300 	and.w	r3, r3, #131072	; 0x20000
 80024a8:	2b00      	cmp	r3, #0
 80024aa:	d002      	beq.n	80024b2 <SetSysClockTo72+0x4a>
  {
    HSEStatus = (uint32_t)0x01;
 80024ac:	2301      	movs	r3, #1
 80024ae:	603b      	str	r3, [r7, #0]
 80024b0:	e001      	b.n	80024b6 <SetSysClockTo72+0x4e>
  }
  else
  {
    HSEStatus = (uint32_t)0x00;
 80024b2:	2300      	movs	r3, #0
 80024b4:	603b      	str	r3, [r7, #0]
  }  

  if (HSEStatus == (uint32_t)0x01)
 80024b6:	683b      	ldr	r3, [r7, #0]
 80024b8:	2b01      	cmp	r3, #1
 80024ba:	d14b      	bne.n	8002554 <SetSysClockTo72+0xec>
  {
    /* Enable Prefetch Buffer */
    FLASH->ACR |= FLASH_ACR_PRFTBE;
 80024bc:	4a29      	ldr	r2, [pc, #164]	; (8002564 <SetSysClockTo72+0xfc>)
 80024be:	4b29      	ldr	r3, [pc, #164]	; (8002564 <SetSysClockTo72+0xfc>)
 80024c0:	681b      	ldr	r3, [r3, #0]
 80024c2:	f043 0310 	orr.w	r3, r3, #16
 80024c6:	6013      	str	r3, [r2, #0]

    /* Flash 2 wait state */
    FLASH->ACR &= (uint32_t)((uint32_t)~FLASH_ACR_LATENCY);
 80024c8:	4a26      	ldr	r2, [pc, #152]	; (8002564 <SetSysClockTo72+0xfc>)
 80024ca:	4b26      	ldr	r3, [pc, #152]	; (8002564 <SetSysClockTo72+0xfc>)
 80024cc:	681b      	ldr	r3, [r3, #0]
 80024ce:	f023 0303 	bic.w	r3, r3, #3
 80024d2:	6013      	str	r3, [r2, #0]
    FLASH->ACR |= (uint32_t)FLASH_ACR_LATENCY_2;    
 80024d4:	4a23      	ldr	r2, [pc, #140]	; (8002564 <SetSysClockTo72+0xfc>)
 80024d6:	4b23      	ldr	r3, [pc, #140]	; (8002564 <SetSysClockTo72+0xfc>)
 80024d8:	681b      	ldr	r3, [r3, #0]
 80024da:	f043 0302 	orr.w	r3, r3, #2
 80024de:	6013      	str	r3, [r2, #0]

 
    /* HCLK = SYSCLK */
    RCC->CFGR |= (uint32_t)RCC_CFGR_HPRE_DIV1;
 80024e0:	4a1f      	ldr	r2, [pc, #124]	; (8002560 <SetSysClockTo72+0xf8>)
 80024e2:	4b1f      	ldr	r3, [pc, #124]	; (8002560 <SetSysClockTo72+0xf8>)
 80024e4:	685b      	ldr	r3, [r3, #4]
 80024e6:	6053      	str	r3, [r2, #4]
      
    /* PCLK2 = HCLK */
    RCC->CFGR |= (uint32_t)RCC_CFGR_PPRE2_DIV1;
 80024e8:	4a1d      	ldr	r2, [pc, #116]	; (8002560 <SetSysClockTo72+0xf8>)
 80024ea:	4b1d      	ldr	r3, [pc, #116]	; (8002560 <SetSysClockTo72+0xf8>)
 80024ec:	685b      	ldr	r3, [r3, #4]
 80024ee:	6053      	str	r3, [r2, #4]
    
    /* PCLK1 = HCLK */
    RCC->CFGR |= (uint32_t)RCC_CFGR_PPRE1_DIV2;
 80024f0:	4a1b      	ldr	r2, [pc, #108]	; (8002560 <SetSysClockTo72+0xf8>)
 80024f2:	4b1b      	ldr	r3, [pc, #108]	; (8002560 <SetSysClockTo72+0xf8>)
 80024f4:	685b      	ldr	r3, [r3, #4]
 80024f6:	f443 6380 	orr.w	r3, r3, #1024	; 0x400
 80024fa:	6053      	str	r3, [r2, #4]
    RCC->CFGR &= (uint32_t)~(RCC_CFGR_PLLXTPRE | RCC_CFGR_PLLSRC | RCC_CFGR_PLLMULL);
    RCC->CFGR |= (uint32_t)(RCC_CFGR_PLLXTPRE_PREDIV1 | RCC_CFGR_PLLSRC_PREDIV1 | 
                            RCC_CFGR_PLLMULL9); 
#else    
    /*  PLL configuration: PLLCLK = HSE * 9 = 72 MHz */
    RCC->CFGR &= (uint32_t)((uint32_t)~(RCC_CFGR_PLLSRC | RCC_CFGR_PLLXTPRE |
 80024fc:	4a18      	ldr	r2, [pc, #96]	; (8002560 <SetSysClockTo72+0xf8>)
 80024fe:	4b18      	ldr	r3, [pc, #96]	; (8002560 <SetSysClockTo72+0xf8>)
 8002500:	685b      	ldr	r3, [r3, #4]
 8002502:	f423 137c 	bic.w	r3, r3, #4128768	; 0x3f0000
 8002506:	6053      	str	r3, [r2, #4]
                                        RCC_CFGR_PLLMULL));
    RCC->CFGR |= (uint32_t)(RCC_CFGR_PLLSRC_HSE | RCC_CFGR_PLLMULL9);
 8002508:	4a15      	ldr	r2, [pc, #84]	; (8002560 <SetSysClockTo72+0xf8>)
 800250a:	4b15      	ldr	r3, [pc, #84]	; (8002560 <SetSysClockTo72+0xf8>)
 800250c:	685b      	ldr	r3, [r3, #4]
 800250e:	f443 13e8 	orr.w	r3, r3, #1900544	; 0x1d0000
 8002512:	6053      	str	r3, [r2, #4]
#endif /* STM32F10X_CL */

    /* Enable PLL */
    RCC->CR |= RCC_CR_PLLON;
 8002514:	4a12      	ldr	r2, [pc, #72]	; (8002560 <SetSysClockTo72+0xf8>)
 8002516:	4b12      	ldr	r3, [pc, #72]	; (8002560 <SetSysClockTo72+0xf8>)
 8002518:	681b      	ldr	r3, [r3, #0]
 800251a:	f043 7380 	orr.w	r3, r3, #16777216	; 0x1000000
 800251e:	6013      	str	r3, [r2, #0]

    /* Wait till PLL is ready */
    while((RCC->CR & RCC_CR_PLLRDY) == 0)
 8002520:	bf00      	nop
 8002522:	4b0f      	ldr	r3, [pc, #60]	; (8002560 <SetSysClockTo72+0xf8>)
 8002524:	681b      	ldr	r3, [r3, #0]
 8002526:	f003 7300 	and.w	r3, r3, #33554432	; 0x2000000
 800252a:	2b00      	cmp	r3, #0
 800252c:	d0f9      	beq.n	8002522 <SetSysClockTo72+0xba>
    {
    }
    
    /* Select PLL as system clock source */
    RCC->CFGR &= (uint32_t)((uint32_t)~(RCC_CFGR_SW));
 800252e:	4a0c      	ldr	r2, [pc, #48]	; (8002560 <SetSysClockTo72+0xf8>)
 8002530:	4b0b      	ldr	r3, [pc, #44]	; (8002560 <SetSysClockTo72+0xf8>)
 8002532:	685b      	ldr	r3, [r3, #4]
 8002534:	f023 0303 	bic.w	r3, r3, #3
 8002538:	6053      	str	r3, [r2, #4]
    RCC->CFGR |= (uint32_t)RCC_CFGR_SW_PLL;    
 800253a:	4a09      	ldr	r2, [pc, #36]	; (8002560 <SetSysClockTo72+0xf8>)
 800253c:	4b08      	ldr	r3, [pc, #32]	; (8002560 <SetSysClockTo72+0xf8>)
 800253e:	685b      	ldr	r3, [r3, #4]
 8002540:	f043 0302 	orr.w	r3, r3, #2
 8002544:	6053      	str	r3, [r2, #4]

    /* Wait till PLL is used as system clock source */
    while ((RCC->CFGR & (uint32_t)RCC_CFGR_SWS) != (uint32_t)0x08)
 8002546:	bf00      	nop
 8002548:	4b05      	ldr	r3, [pc, #20]	; (8002560 <SetSysClockTo72+0xf8>)
 800254a:	685b      	ldr	r3, [r3, #4]
 800254c:	f003 030c 	and.w	r3, r3, #12
 8002550:	2b08      	cmp	r3, #8
 8002552:	d1f9      	bne.n	8002548 <SetSysClockTo72+0xe0>
  }
  else
  { /* If HSE fails to start-up, the application will have wrong clock 
         configuration. User can add here some code to deal with this error */
  }
}
 8002554:	bf00      	nop
 8002556:	370c      	adds	r7, #12
 8002558:	46bd      	mov	sp, r7
 800255a:	bc80      	pop	{r7}
 800255c:	4770      	bx	lr
 800255e:	bf00      	nop
 8002560:	40021000 	.word	0x40021000
 8002564:	40022000 	.word	0x40022000

08002568 <read_conn_header>:


/*-------------------------------PUBLIHS-----------------------------------------*/


void read_conn_header(conn_header_t *header, uint8_t * frame){
 8002568:	b580      	push	{r7, lr}
 800256a:	b086      	sub	sp, #24
 800256c:	af00      	add	r7, sp, #0
 800256e:	6078      	str	r0, [r7, #4]
 8002570:	6039      	str	r1, [r7, #0]
	uint8_t pos = 0;
 8002572:	2300      	movs	r3, #0
 8002574:	75fb      	strb	r3, [r7, #23]
	header->fix_head.ctrl_byte =  (conn_ctrl_byte_t *) &frame[pos];
 8002576:	7dfb      	ldrb	r3, [r7, #23]
 8002578:	683a      	ldr	r2, [r7, #0]
 800257a:	441a      	add	r2, r3
 800257c:	687b      	ldr	r3, [r7, #4]
 800257e:	601a      	str	r2, [r3, #0]
	pos ++;
 8002580:	7dfb      	ldrb	r3, [r7, #23]
 8002582:	3301      	adds	r3, #1
 8002584:	75fb      	strb	r3, [r7, #23]
	rem_length_t rem_length = decode_pck_len(&frame[pos]);
 8002586:	7dfb      	ldrb	r3, [r7, #23]
 8002588:	683a      	ldr	r2, [r7, #0]
 800258a:	441a      	add	r2, r3
 800258c:	f107 030c 	add.w	r3, r7, #12
 8002590:	4611      	mov	r1, r2
 8002592:	4618      	mov	r0, r3
 8002594:	f000 f87c 	bl	8002690 <decode_pck_len>
		header->fix_head.rem_len = rem_length.value;
 8002598:	68fa      	ldr	r2, [r7, #12]
 800259a:	687b      	ldr	r3, [r7, #4]
 800259c:	605a      	str	r2, [r3, #4]
		pos += rem_length.bytes_nb;
 800259e:	7c3a      	ldrb	r2, [r7, #16]
 80025a0:	7dfb      	ldrb	r3, [r7, #23]
 80025a2:	4413      	add	r3, r2
 80025a4:	75fb      	strb	r3, [r7, #23]

	header->conn_var_head = (conn_var_head_t*) (&frame[pos]);
 80025a6:	7dfb      	ldrb	r3, [r7, #23]
 80025a8:	683a      	ldr	r2, [r7, #0]
 80025aa:	441a      	add	r2, r3
 80025ac:	687b      	ldr	r3, [r7, #4]
 80025ae:	609a      	str	r2, [r3, #8]
//	pos += 1;
//
//	header->keep_alive = (uint16_t*)  &frame[pos];
//	*header->keep_alive = X_HTONS(*header->keep_alive);

}
 80025b0:	bf00      	nop
 80025b2:	3718      	adds	r7, #24
 80025b4:	46bd      	mov	sp, r7
 80025b6:	bd80      	pop	{r7, pc}

080025b8 <broker_decode_publish>:
}


/*-------------------------------PUBLIHS-----------------------------------------*/

 void broker_decode_publish(uint8_t* frame, pub_pck_t * pub_pck){
 80025b8:	b580      	push	{r7, lr}
 80025ba:	b086      	sub	sp, #24
 80025bc:	af00      	add	r7, sp, #0
 80025be:	6078      	str	r0, [r7, #4]
 80025c0:	6039      	str	r1, [r7, #0]
	uint8_t pos = 0;
 80025c2:	2300      	movs	r3, #0
 80025c4:	75fb      	strb	r3, [r7, #23]

	pub_pck->fix_head.ctrl_byte = (pub_ctrl_byte_t *) frame;
 80025c6:	683b      	ldr	r3, [r7, #0]
 80025c8:	687a      	ldr	r2, [r7, #4]
 80025ca:	601a      	str	r2, [r3, #0]
	pos ++;
 80025cc:	7dfb      	ldrb	r3, [r7, #23]
 80025ce:	3301      	adds	r3, #1
 80025d0:	75fb      	strb	r3, [r7, #23]
	rem_length_t rem_length = decode_pck_len(&frame[pos]);
 80025d2:	7dfb      	ldrb	r3, [r7, #23]
 80025d4:	687a      	ldr	r2, [r7, #4]
 80025d6:	441a      	add	r2, r3
 80025d8:	f107 030c 	add.w	r3, r7, #12
 80025dc:	4611      	mov	r1, r2
 80025de:	4618      	mov	r0, r3
 80025e0:	f000 f856 	bl	8002690 <decode_pck_len>
	pub_pck->fix_head.rem_len = rem_length.value;
 80025e4:	68fa      	ldr	r2, [r7, #12]
 80025e6:	683b      	ldr	r3, [r7, #0]
 80025e8:	605a      	str	r2, [r3, #4]
	pos += rem_length.bytes_nb;
 80025ea:	7c3a      	ldrb	r2, [r7, #16]
 80025ec:	7dfb      	ldrb	r3, [r7, #23]
 80025ee:	4413      	add	r3, r2
 80025f0:	75fb      	strb	r3, [r7, #23]



	pub_pck->var_head.topic_name_len  = (uint16_t*) &frame[pos];
 80025f2:	7dfb      	ldrb	r3, [r7, #23]
 80025f4:	687a      	ldr	r2, [r7, #4]
 80025f6:	441a      	add	r2, r3
 80025f8:	683b      	ldr	r3, [r7, #0]
 80025fa:	609a      	str	r2, [r3, #8]
	*pub_pck->var_head.topic_name_len = X_HTONS(*pub_pck->var_head.topic_name_len);
 80025fc:	683b      	ldr	r3, [r7, #0]
 80025fe:	689b      	ldr	r3, [r3, #8]
 8002600:	683a      	ldr	r2, [r7, #0]
 8002602:	6892      	ldr	r2, [r2, #8]
 8002604:	8812      	ldrh	r2, [r2, #0]
 8002606:	0a12      	lsrs	r2, r2, #8
 8002608:	b292      	uxth	r2, r2
 800260a:	b211      	sxth	r1, r2
 800260c:	683a      	ldr	r2, [r7, #0]
 800260e:	6892      	ldr	r2, [r2, #8]
 8002610:	8812      	ldrh	r2, [r2, #0]
 8002612:	0212      	lsls	r2, r2, #8
 8002614:	b212      	sxth	r2, r2
 8002616:	430a      	orrs	r2, r1
 8002618:	b212      	sxth	r2, r2
 800261a:	b292      	uxth	r2, r2
 800261c:	801a      	strh	r2, [r3, #0]
	pos += 2;
 800261e:	7dfb      	ldrb	r3, [r7, #23]
 8002620:	3302      	adds	r3, #2
 8002622:	75fb      	strb	r3, [r7, #23]

	pub_pck->var_head.topic_name = (unsigned char*)  &frame[pos];
 8002624:	7dfb      	ldrb	r3, [r7, #23]
 8002626:	687a      	ldr	r2, [r7, #4]
 8002628:	441a      	add	r2, r3
 800262a:	683b      	ldr	r3, [r7, #0]
 800262c:	60da      	str	r2, [r3, #12]
	pos += *pub_pck->var_head.topic_name_len;
 800262e:	683b      	ldr	r3, [r7, #0]
 8002630:	689b      	ldr	r3, [r3, #8]
 8002632:	881b      	ldrh	r3, [r3, #0]
 8002634:	b2da      	uxtb	r2, r3
 8002636:	7dfb      	ldrb	r3, [r7, #23]
 8002638:	4413      	add	r3, r2
 800263a:	75fb      	strb	r3, [r7, #23]

	if (pub_pck->fix_head.ctrl_byte->QoS > 0){
 800263c:	683b      	ldr	r3, [r7, #0]
 800263e:	681b      	ldr	r3, [r3, #0]
 8002640:	781b      	ldrb	r3, [r3, #0]
 8002642:	f3c3 0341 	ubfx	r3, r3, #1, #2
 8002646:	b2db      	uxtb	r3, r3
 8002648:	2b00      	cmp	r3, #0
 800264a:	dd18      	ble.n	800267e <broker_decode_publish+0xc6>
		pub_pck->var_head.packet_id  = (uint16_t*) &frame[pos];
 800264c:	7dfb      	ldrb	r3, [r7, #23]
 800264e:	687a      	ldr	r2, [r7, #4]
 8002650:	441a      	add	r2, r3
 8002652:	683b      	ldr	r3, [r7, #0]
 8002654:	611a      	str	r2, [r3, #16]
		*pub_pck->var_head.packet_id = X_HTONS(*pub_pck->var_head.packet_id);
 8002656:	683b      	ldr	r3, [r7, #0]
 8002658:	691b      	ldr	r3, [r3, #16]
 800265a:	683a      	ldr	r2, [r7, #0]
 800265c:	6912      	ldr	r2, [r2, #16]
 800265e:	8812      	ldrh	r2, [r2, #0]
 8002660:	0a12      	lsrs	r2, r2, #8
 8002662:	b292      	uxth	r2, r2
 8002664:	b211      	sxth	r1, r2
 8002666:	683a      	ldr	r2, [r7, #0]
 8002668:	6912      	ldr	r2, [r2, #16]
 800266a:	8812      	ldrh	r2, [r2, #0]
 800266c:	0212      	lsls	r2, r2, #8
 800266e:	b212      	sxth	r2, r2
 8002670:	430a      	orrs	r2, r1
 8002672:	b212      	sxth	r2, r2
 8002674:	b292      	uxth	r2, r2
 8002676:	801a      	strh	r2, [r3, #0]
		pos += 2;
 8002678:	7dfb      	ldrb	r3, [r7, #23]
 800267a:	3302      	adds	r3, #2
 800267c:	75fb      	strb	r3, [r7, #23]
	}
	pub_pck->pld = &frame[pos];
 800267e:	7dfb      	ldrb	r3, [r7, #23]
 8002680:	687a      	ldr	r2, [r7, #4]
 8002682:	441a      	add	r2, r3
 8002684:	683b      	ldr	r3, [r7, #0]
 8002686:	615a      	str	r2, [r3, #20]
}
 8002688:	bf00      	nop
 800268a:	3718      	adds	r7, #24
 800268c:	46bd      	mov	sp, r7
 800268e:	bd80      	pop	{r7, pc}

08002690 <decode_pck_len>:
	}
}



rem_length_t decode_pck_len (uint8_t * frame){
 8002690:	b580      	push	{r7, lr}
 8002692:	b086      	sub	sp, #24
 8002694:	af00      	add	r7, sp, #0
 8002696:	6078      	str	r0, [r7, #4]
 8002698:	6039      	str	r1, [r7, #0]
	uint8_t multiplier = 1;
 800269a:	2301      	movs	r3, #1
 800269c:	75fb      	strb	r3, [r7, #23]
	uint8_t  encodedByte;
	rem_length_t rem_length;
	memset(&rem_length, 0, sizeof(rem_length_t));
 800269e:	f107 030c 	add.w	r3, r7, #12
 80026a2:	2208      	movs	r2, #8
 80026a4:	2100      	movs	r1, #0
 80026a6:	4618      	mov	r0, r3
 80026a8:	f000 f905 	bl	80028b6 <memset>
	const uint8_t max_nb_bytes = 4;
 80026ac:	2304      	movs	r3, #4
 80026ae:	75bb      	strb	r3, [r7, #22]
	do{
		encodedByte = frame[rem_length.bytes_nb];
 80026b0:	7c3b      	ldrb	r3, [r7, #16]
 80026b2:	461a      	mov	r2, r3
 80026b4:	683b      	ldr	r3, [r7, #0]
 80026b6:	4413      	add	r3, r2
 80026b8:	781b      	ldrb	r3, [r3, #0]
 80026ba:	757b      	strb	r3, [r7, #21]
		rem_length.value += (encodedByte & 127) * multiplier;
 80026bc:	68fb      	ldr	r3, [r7, #12]
 80026be:	7d7a      	ldrb	r2, [r7, #21]
 80026c0:	f002 027f 	and.w	r2, r2, #127	; 0x7f
 80026c4:	7df9      	ldrb	r1, [r7, #23]
 80026c6:	fb01 f202 	mul.w	r2, r1, r2
 80026ca:	4413      	add	r3, r2
 80026cc:	60fb      	str	r3, [r7, #12]
		multiplier *= 128;
 80026ce:	7dfb      	ldrb	r3, [r7, #23]
 80026d0:	01db      	lsls	r3, r3, #7
 80026d2:	75fb      	strb	r3, [r7, #23]
		rem_length.bytes_nb++;
 80026d4:	7c3b      	ldrb	r3, [r7, #16]
 80026d6:	3301      	adds	r3, #1
 80026d8:	b2db      	uxtb	r3, r3
 80026da:	743b      	strb	r3, [r7, #16]
		if (rem_length.bytes_nb == max_nb_bytes){
 80026dc:	7c3b      	ldrb	r3, [r7, #16]
 80026de:	7dba      	ldrb	r2, [r7, #22]
 80026e0:	429a      	cmp	r2, r3
 80026e2:	d004      	beq.n	80026ee <decode_pck_len+0x5e>
			break;
		}
	}while ((encodedByte & 128) != 0);
 80026e4:	f997 3015 	ldrsb.w	r3, [r7, #21]
 80026e8:	2b00      	cmp	r3, #0
 80026ea:	dbe1      	blt.n	80026b0 <decode_pck_len+0x20>
 80026ec:	e000      	b.n	80026f0 <decode_pck_len+0x60>
			break;
 80026ee:	bf00      	nop
	return rem_length;
 80026f0:	687b      	ldr	r3, [r7, #4]
 80026f2:	461a      	mov	r2, r3
 80026f4:	f107 030c 	add.w	r3, r7, #12
 80026f8:	e893 0003 	ldmia.w	r3, {r0, r1}
 80026fc:	e882 0003 	stmia.w	r2, {r0, r1}
}
 8002700:	6878      	ldr	r0, [r7, #4]
 8002702:	3718      	adds	r7, #24
 8002704:	46bd      	mov	sp, r7
 8002706:	bd80      	pop	{r7, pc}

08002708 <broker_decode_subscribe>:



/*-------------------------------SUBSCRIBE-----------------------------------------*/

void broker_decode_subscribe(uint8_t* frame, sub_pck_t * sub_pck){
 8002708:	b590      	push	{r4, r7, lr}
 800270a:	b087      	sub	sp, #28
 800270c:	af00      	add	r7, sp, #0
 800270e:	6078      	str	r0, [r7, #4]
 8002710:	6039      	str	r1, [r7, #0]
	uint8_t pos = 0;
 8002712:	2300      	movs	r3, #0
 8002714:	75fb      	strb	r3, [r7, #23]

	sub_pck->fix_head.subs_ctrl_byte = (subs_ctrl_byte_t *) frame;
 8002716:	683b      	ldr	r3, [r7, #0]
 8002718:	687a      	ldr	r2, [r7, #4]
 800271a:	601a      	str	r2, [r3, #0]
	pos++;
 800271c:	7dfb      	ldrb	r3, [r7, #23]
 800271e:	3301      	adds	r3, #1
 8002720:	75fb      	strb	r3, [r7, #23]
	rem_length_t rem_length = decode_pck_len(&frame[pos]);
 8002722:	7dfb      	ldrb	r3, [r7, #23]
 8002724:	687a      	ldr	r2, [r7, #4]
 8002726:	441a      	add	r2, r3
 8002728:	f107 030c 	add.w	r3, r7, #12
 800272c:	4611      	mov	r1, r2
 800272e:	4618      	mov	r0, r3
 8002730:	f7ff ffae 	bl	8002690 <decode_pck_len>
	sub_pck->fix_head.rem_len = rem_length.value;
 8002734:	68fa      	ldr	r2, [r7, #12]
 8002736:	683b      	ldr	r3, [r7, #0]
 8002738:	605a      	str	r2, [r3, #4]
	pos += rem_length.bytes_nb;
 800273a:	7c3a      	ldrb	r2, [r7, #16]
 800273c:	7dfb      	ldrb	r3, [r7, #23]
 800273e:	4413      	add	r3, r2
 8002740:	75fb      	strb	r3, [r7, #23]


	sub_pck->var_head.packet_id  = (uint16_t*) &frame[pos];
 8002742:	7dfb      	ldrb	r3, [r7, #23]
 8002744:	687a      	ldr	r2, [r7, #4]
 8002746:	441a      	add	r2, r3
 8002748:	683b      	ldr	r3, [r7, #0]
 800274a:	609a      	str	r2, [r3, #8]
	*sub_pck->var_head.packet_id = X_HTONS(*sub_pck->var_head.packet_id);
 800274c:	683b      	ldr	r3, [r7, #0]
 800274e:	689b      	ldr	r3, [r3, #8]
 8002750:	683a      	ldr	r2, [r7, #0]
 8002752:	6892      	ldr	r2, [r2, #8]
 8002754:	8812      	ldrh	r2, [r2, #0]
 8002756:	0a12      	lsrs	r2, r2, #8
 8002758:	b292      	uxth	r2, r2
 800275a:	b211      	sxth	r1, r2
 800275c:	683a      	ldr	r2, [r7, #0]
 800275e:	6892      	ldr	r2, [r2, #8]
 8002760:	8812      	ldrh	r2, [r2, #0]
 8002762:	0212      	lsls	r2, r2, #8
 8002764:	b212      	sxth	r2, r2
 8002766:	430a      	orrs	r2, r1
 8002768:	b212      	sxth	r2, r2
 800276a:	b292      	uxth	r2, r2
 800276c:	801a      	strh	r2, [r3, #0]
	pos += 2;
 800276e:	7dfb      	ldrb	r3, [r7, #23]
 8002770:	3302      	adds	r3, #2
 8002772:	75fb      	strb	r3, [r7, #23]

	const uint8_t fix_head_size = 2;
 8002774:	2302      	movs	r3, #2
 8002776:	757b      	strb	r3, [r7, #21]
	uint8_t topic_nb =0;
 8002778:	2300      	movs	r3, #0
 800277a:	75bb      	strb	r3, [r7, #22]
	while (pos < (sub_pck->fix_head.rem_len + fix_head_size)){
 800277c:	e060      	b.n	8002840 <broker_decode_subscribe+0x138>
		sub_pck->pld_topics[topic_nb].topic_name_len = (uint16_t *)  &frame[pos];
 800277e:	7dba      	ldrb	r2, [r7, #22]
 8002780:	7dfb      	ldrb	r3, [r7, #23]
 8002782:	6879      	ldr	r1, [r7, #4]
 8002784:	4419      	add	r1, r3
 8002786:	6838      	ldr	r0, [r7, #0]
 8002788:	4613      	mov	r3, r2
 800278a:	005b      	lsls	r3, r3, #1
 800278c:	4413      	add	r3, r2
 800278e:	009b      	lsls	r3, r3, #2
 8002790:	4403      	add	r3, r0
 8002792:	330c      	adds	r3, #12
 8002794:	6019      	str	r1, [r3, #0]
		*sub_pck->pld_topics[topic_nb].topic_name_len  = X_HTONS(*sub_pck->pld_topics[topic_nb].topic_name_len );
 8002796:	7dba      	ldrb	r2, [r7, #22]
 8002798:	6839      	ldr	r1, [r7, #0]
 800279a:	4613      	mov	r3, r2
 800279c:	005b      	lsls	r3, r3, #1
 800279e:	4413      	add	r3, r2
 80027a0:	009b      	lsls	r3, r3, #2
 80027a2:	440b      	add	r3, r1
 80027a4:	330c      	adds	r3, #12
 80027a6:	6819      	ldr	r1, [r3, #0]
 80027a8:	7dba      	ldrb	r2, [r7, #22]
 80027aa:	6838      	ldr	r0, [r7, #0]
 80027ac:	4613      	mov	r3, r2
 80027ae:	005b      	lsls	r3, r3, #1
 80027b0:	4413      	add	r3, r2
 80027b2:	009b      	lsls	r3, r3, #2
 80027b4:	4403      	add	r3, r0
 80027b6:	330c      	adds	r3, #12
 80027b8:	681b      	ldr	r3, [r3, #0]
 80027ba:	881b      	ldrh	r3, [r3, #0]
 80027bc:	0a1b      	lsrs	r3, r3, #8
 80027be:	b29b      	uxth	r3, r3
 80027c0:	b218      	sxth	r0, r3
 80027c2:	7dba      	ldrb	r2, [r7, #22]
 80027c4:	683c      	ldr	r4, [r7, #0]
 80027c6:	4613      	mov	r3, r2
 80027c8:	005b      	lsls	r3, r3, #1
 80027ca:	4413      	add	r3, r2
 80027cc:	009b      	lsls	r3, r3, #2
 80027ce:	4423      	add	r3, r4
 80027d0:	330c      	adds	r3, #12
 80027d2:	681b      	ldr	r3, [r3, #0]
 80027d4:	881b      	ldrh	r3, [r3, #0]
 80027d6:	021b      	lsls	r3, r3, #8
 80027d8:	b21b      	sxth	r3, r3
 80027da:	4303      	orrs	r3, r0
 80027dc:	b21b      	sxth	r3, r3
 80027de:	b29b      	uxth	r3, r3
 80027e0:	800b      	strh	r3, [r1, #0]
		pos += 2;
 80027e2:	7dfb      	ldrb	r3, [r7, #23]
 80027e4:	3302      	adds	r3, #2
 80027e6:	75fb      	strb	r3, [r7, #23]
		sub_pck->pld_topics[topic_nb].topic_name =  (unsigned char*)  &frame[pos];
 80027e8:	7dba      	ldrb	r2, [r7, #22]
 80027ea:	7dfb      	ldrb	r3, [r7, #23]
 80027ec:	6879      	ldr	r1, [r7, #4]
 80027ee:	4419      	add	r1, r3
 80027f0:	6838      	ldr	r0, [r7, #0]
 80027f2:	4613      	mov	r3, r2
 80027f4:	005b      	lsls	r3, r3, #1
 80027f6:	4413      	add	r3, r2
 80027f8:	009b      	lsls	r3, r3, #2
 80027fa:	4403      	add	r3, r0
 80027fc:	3310      	adds	r3, #16
 80027fe:	6019      	str	r1, [r3, #0]
		pos += (*sub_pck->pld_topics[topic_nb].topic_name_len);
 8002800:	7dba      	ldrb	r2, [r7, #22]
 8002802:	6839      	ldr	r1, [r7, #0]
 8002804:	4613      	mov	r3, r2
 8002806:	005b      	lsls	r3, r3, #1
 8002808:	4413      	add	r3, r2
 800280a:	009b      	lsls	r3, r3, #2
 800280c:	440b      	add	r3, r1
 800280e:	330c      	adds	r3, #12
 8002810:	681b      	ldr	r3, [r3, #0]
 8002812:	881b      	ldrh	r3, [r3, #0]
 8002814:	b2da      	uxtb	r2, r3
 8002816:	7dfb      	ldrb	r3, [r7, #23]
 8002818:	4413      	add	r3, r2
 800281a:	75fb      	strb	r3, [r7, #23]
		sub_pck->pld_topics[topic_nb].qos = (uint8_t*) &frame[pos];
 800281c:	7dba      	ldrb	r2, [r7, #22]
 800281e:	7dfb      	ldrb	r3, [r7, #23]
 8002820:	6879      	ldr	r1, [r7, #4]
 8002822:	4419      	add	r1, r3
 8002824:	6838      	ldr	r0, [r7, #0]
 8002826:	4613      	mov	r3, r2
 8002828:	005b      	lsls	r3, r3, #1
 800282a:	4413      	add	r3, r2
 800282c:	009b      	lsls	r3, r3, #2
 800282e:	4403      	add	r3, r0
 8002830:	3314      	adds	r3, #20
 8002832:	6019      	str	r1, [r3, #0]
		pos += 1;
 8002834:	7dfb      	ldrb	r3, [r7, #23]
 8002836:	3301      	adds	r3, #1
 8002838:	75fb      	strb	r3, [r7, #23]
		topic_nb++;
 800283a:	7dbb      	ldrb	r3, [r7, #22]
 800283c:	3301      	adds	r3, #1
 800283e:	75bb      	strb	r3, [r7, #22]
	while (pos < (sub_pck->fix_head.rem_len + fix_head_size)){
 8002840:	7dfa      	ldrb	r2, [r7, #23]
 8002842:	683b      	ldr	r3, [r7, #0]
 8002844:	6859      	ldr	r1, [r3, #4]
 8002846:	7d7b      	ldrb	r3, [r7, #21]
 8002848:	440b      	add	r3, r1
 800284a:	429a      	cmp	r2, r3
 800284c:	d397      	bcc.n	800277e <broker_decode_subscribe+0x76>
	}
}
 800284e:	bf00      	nop
 8002850:	371c      	adds	r7, #28
 8002852:	46bd      	mov	sp, r7
 8002854:	bd90      	pop	{r4, r7, pc}
	...

08002858 <__libc_init_array>:
 8002858:	b570      	push	{r4, r5, r6, lr}
 800285a:	2500      	movs	r5, #0
 800285c:	4e0c      	ldr	r6, [pc, #48]	; (8002890 <__libc_init_array+0x38>)
 800285e:	4c0d      	ldr	r4, [pc, #52]	; (8002894 <__libc_init_array+0x3c>)
 8002860:	1ba4      	subs	r4, r4, r6
 8002862:	10a4      	asrs	r4, r4, #2
 8002864:	42a5      	cmp	r5, r4
 8002866:	d109      	bne.n	800287c <__libc_init_array+0x24>
 8002868:	f000 f82e 	bl	80028c8 <_init>
 800286c:	2500      	movs	r5, #0
 800286e:	4e0a      	ldr	r6, [pc, #40]	; (8002898 <__libc_init_array+0x40>)
 8002870:	4c0a      	ldr	r4, [pc, #40]	; (800289c <__libc_init_array+0x44>)
 8002872:	1ba4      	subs	r4, r4, r6
 8002874:	10a4      	asrs	r4, r4, #2
 8002876:	42a5      	cmp	r5, r4
 8002878:	d105      	bne.n	8002886 <__libc_init_array+0x2e>
 800287a:	bd70      	pop	{r4, r5, r6, pc}
 800287c:	f856 3025 	ldr.w	r3, [r6, r5, lsl #2]
 8002880:	4798      	blx	r3
 8002882:	3501      	adds	r5, #1
 8002884:	e7ee      	b.n	8002864 <__libc_init_array+0xc>
 8002886:	f856 3025 	ldr.w	r3, [r6, r5, lsl #2]
 800288a:	4798      	blx	r3
 800288c:	3501      	adds	r5, #1
 800288e:	e7f2      	b.n	8002876 <__libc_init_array+0x1e>
 8002890:	08002938 	.word	0x08002938
 8002894:	08002938 	.word	0x08002938
 8002898:	08002938 	.word	0x08002938
 800289c:	0800293c 	.word	0x0800293c

080028a0 <memcpy>:
 80028a0:	b510      	push	{r4, lr}
 80028a2:	1e43      	subs	r3, r0, #1
 80028a4:	440a      	add	r2, r1
 80028a6:	4291      	cmp	r1, r2
 80028a8:	d100      	bne.n	80028ac <memcpy+0xc>
 80028aa:	bd10      	pop	{r4, pc}
 80028ac:	f811 4b01 	ldrb.w	r4, [r1], #1
 80028b0:	f803 4f01 	strb.w	r4, [r3, #1]!
 80028b4:	e7f7      	b.n	80028a6 <memcpy+0x6>

080028b6 <memset>:
 80028b6:	4603      	mov	r3, r0
 80028b8:	4402      	add	r2, r0
 80028ba:	4293      	cmp	r3, r2
 80028bc:	d100      	bne.n	80028c0 <memset+0xa>
 80028be:	4770      	bx	lr
 80028c0:	f803 1b01 	strb.w	r1, [r3], #1
 80028c4:	e7f9      	b.n	80028ba <memset+0x4>
	...

080028c8 <_init>:
 80028c8:	b5f8      	push	{r3, r4, r5, r6, r7, lr}
 80028ca:	bf00      	nop
 80028cc:	bcf8      	pop	{r3, r4, r5, r6, r7}
 80028ce:	bc08      	pop	{r3}
 80028d0:	469e      	mov	lr, r3
 80028d2:	4770      	bx	lr

080028d4 <_fini>:
 80028d4:	b5f8      	push	{r3, r4, r5, r6, r7, lr}
 80028d6:	bf00      	nop
 80028d8:	bcf8      	pop	{r3, r4, r5, r6, r7}
 80028da:	bc08      	pop	{r3}
 80028dc:	469e      	mov	lr, r3
 80028de:	4770      	bx	lr
